Component: ARM Compiler 5.06 update 6 (build 750) Tool: armlink [4d35ed]

==============================================================================

Section Cross References

    startup_stm32f407xx.o(RESET) refers to startup_stm32f407xx.o(STACK) for __initial_sp
    startup_stm32f407xx.o(RESET) refers to startup_stm32f407xx.o(.text) for Reset_Handler
    startup_stm32f407xx.o(RESET) refers to stm32f4xx_it.o(i.NMI_Handler) for NMI_Handler
    startup_stm32f407xx.o(RESET) refers to stm32f4xx_it.o(i.HardFault_Handler) for HardFault_Handler
    startup_stm32f407xx.o(RESET) refers to stm32f4xx_it.o(i.MemManage_Handler) for MemManage_Handler
    startup_stm32f407xx.o(RESET) refers to stm32f4xx_it.o(i.BusFault_Handler) for BusFault_Handler
    startup_stm32f407xx.o(RESET) refers to stm32f4xx_it.o(i.UsageFault_Handler) for UsageFault_Handler
    startup_stm32f407xx.o(RESET) refers to stm32f4xx_it.o(i.SVC_Handler) for SVC_Handler
    startup_stm32f407xx.o(RESET) refers to stm32f4xx_it.o(i.DebugMon_Handler) for DebugMon_Handler
    startup_stm32f407xx.o(RESET) refers to stm32f4xx_it.o(i.PendSV_Handler) for PendSV_Handler
    startup_stm32f407xx.o(RESET) refers to stm32f4xx_it.o(i.SysTick_Handler) for SysTick_Handler
    startup_stm32f407xx.o(RESET) refers to stm32f4xx_it.o(i.CAN1_TX_IRQHandler) for CAN1_TX_IRQHandler
    startup_stm32f407xx.o(RESET) refers to stm32f4xx_it.o(i.CAN1_RX0_IRQHandler) for CAN1_RX0_IRQHandler
    startup_stm32f407xx.o(RESET) refers to stm32f4xx_it.o(i.CAN1_RX1_IRQHandler) for CAN1_RX1_IRQHandler
    startup_stm32f407xx.o(RESET) refers to stm32f4xx_it.o(i.EXTI9_5_IRQHandler) for EXTI9_5_IRQHandler
    startup_stm32f407xx.o(RESET) refers to modbus_tim.o(i.TIM2_IRQHandler) for TIM2_IRQHandler
    startup_stm32f407xx.o(RESET) refers to modbus_usart.o(i.USART3_IRQHandler) for USART3_IRQHandler
    startup_stm32f407xx.o(RESET) refers to stm32f4xx_it.o(i.EXTI15_10_IRQHandler) for EXTI15_10_IRQHandler
    startup_stm32f407xx.o(RESET) refers to stm32f4xx_it.o(i.UART4_IRQHandler) for UART4_IRQHandler
    startup_stm32f407xx.o(RESET) refers to stm32f4xx_it.o(i.TIM6_DAC_IRQHandler) for TIM6_DAC_IRQHandler
    startup_stm32f407xx.o(RESET) refers to stm32f4xx_it.o(i.TIM7_IRQHandler) for TIM7_IRQHandler
    startup_stm32f407xx.o(.text) refers to system_stm32f4xx.o(i.SystemInit) for SystemInit
    startup_stm32f407xx.o(.text) refers to entry.o(.ARM.Collect$$$$00000000) for __main
    main.o(i.HAL_TIM_PeriodElapsedCallback) refers to stm32f4xx_hal.o(i.HAL_IncTick) for HAL_IncTick
    main.o(i.HAL_TIM_PeriodElapsedCallback) refers to co_app_stm32.o(i.canopen_app_interrupt) for canopen_app_interrupt
    main.o(i.HAL_TIM_PeriodElapsedCallback) refers to co_app_stm32.o(.data) for canopenNodeSTM32
    main.o(i.SystemClock_Config) refers to memseta.o(.text) for __aeabi_memclr4
    main.o(i.SystemClock_Config) refers to stm32f4xx_hal_rcc.o(i.HAL_RCC_OscConfig) for HAL_RCC_OscConfig
    main.o(i.SystemClock_Config) refers to main.o(i.Error_Handler) for Error_Handler
    main.o(i.SystemClock_Config) refers to stm32f4xx_hal_rcc.o(i.HAL_RCC_ClockConfig) for HAL_RCC_ClockConfig
    main.o(i.main) refers to stm32f4xx_hal.o(i.HAL_Init) for HAL_Init
    main.o(i.main) refers to main.o(i.SystemClock_Config) for SystemClock_Config
    main.o(i.main) refers to gpio.o(i.MX_GPIO_Init) for MX_GPIO_Init
    main.o(i.main) refers to can.o(i.MX_CAN1_Init) for MX_CAN1_Init
    main.o(i.main) refers to usart.o(i.MX_UART4_Init) for MX_UART4_Init
    main.o(i.main) refers to tim.o(i.MX_TIM7_Init) for MX_TIM7_Init
    main.o(i.main) refers to modbus_tim.o(i.bsp_InitHardTimer) for bsp_InitHardTimer
    main.o(i.main) refers to modbus_usart.o(i.bsp_InitUart) for bsp_InitUart
    main.o(i.main) refers to eventrecorder.o(i.EventRecorderInitialize) for EventRecorderInitialize
    main.o(i.main) refers to eventrecorder.o(i.EventRecorderStart) for EventRecorderStart
    main.o(i.main) refers to co_app_stm32.o(i.canopen_app_init) for canopen_app_init
    main.o(i.main) refers to key.o(i.key_fifoinit) for key_fifoinit
    main.o(i.main) refers to co_app_stm32.o(i.canopen_app_process) for canopen_app_process
    main.o(i.main) refers to modbus_slave.o(i.MODS_Poll) for MODS_Poll
    main.o(i.main) refers to modbus_msg.o(i.bsp_GetMsg) for bsp_GetMsg
    main.o(i.main) refers to jawd_speed.o(i.motor_05h) for motor_05h
    main.o(i.main) refers to printf5.o(i.__0printf$5) for __2printf
    main.o(i.main) refers to jawd_speed.o(i.motorstart) for motorstart
    main.o(i.main) refers to jawd_speed.o(i.motorstop) for motorstop
    main.o(i.main) refers to key.o(i.bsp_GetKey) for bsp_GetKey
    main.o(i.main) refers to can.o(.bss) for hcan1
    main.o(i.main) refers to tim.o(.bss) for htim7
    main.o(i.main) refers to key.o(.bss) for s_tKey
    gpio.o(i.MX_GPIO_Init) refers to memseta.o(.text) for __aeabi_memclr4
    gpio.o(i.MX_GPIO_Init) refers to stm32f4xx_hal_gpio.o(i.HAL_GPIO_WritePin) for HAL_GPIO_WritePin
    gpio.o(i.MX_GPIO_Init) refers to stm32f4xx_hal_gpio.o(i.HAL_GPIO_Init) for HAL_GPIO_Init
    gpio.o(i.MX_GPIO_Init) refers to stm32f4xx_hal_cortex.o(i.HAL_NVIC_SetPriority) for HAL_NVIC_SetPriority
    gpio.o(i.MX_GPIO_Init) refers to stm32f4xx_hal_cortex.o(i.HAL_NVIC_EnableIRQ) for HAL_NVIC_EnableIRQ
    can.o(i.HAL_CAN_MspDeInit) refers to stm32f4xx_hal_gpio.o(i.HAL_GPIO_DeInit) for HAL_GPIO_DeInit
    can.o(i.HAL_CAN_MspDeInit) refers to stm32f4xx_hal_cortex.o(i.HAL_NVIC_DisableIRQ) for HAL_NVIC_DisableIRQ
    can.o(i.HAL_CAN_MspInit) refers to memseta.o(.text) for __aeabi_memclr4
    can.o(i.HAL_CAN_MspInit) refers to stm32f4xx_hal_gpio.o(i.HAL_GPIO_Init) for HAL_GPIO_Init
    can.o(i.HAL_CAN_MspInit) refers to stm32f4xx_hal_cortex.o(i.HAL_NVIC_SetPriority) for HAL_NVIC_SetPriority
    can.o(i.HAL_CAN_MspInit) refers to stm32f4xx_hal_cortex.o(i.HAL_NVIC_EnableIRQ) for HAL_NVIC_EnableIRQ
    can.o(i.MX_CAN1_Init) refers to stm32f4xx_hal_can.o(i.HAL_CAN_Init) for HAL_CAN_Init
    can.o(i.MX_CAN1_Init) refers to main.o(i.Error_Handler) for Error_Handler
    can.o(i.MX_CAN1_Init) refers to stm32f4xx_hal_can.o(i.HAL_CAN_ConfigFilter) for HAL_CAN_ConfigFilter
    can.o(i.MX_CAN1_Init) refers to can.o(.bss) for hcan1
    tim.o(i.HAL_TIM_Base_MspDeInit) refers to stm32f4xx_hal_cortex.o(i.HAL_NVIC_DisableIRQ) for HAL_NVIC_DisableIRQ
    tim.o(i.HAL_TIM_Base_MspInit) refers to stm32f4xx_hal_cortex.o(i.HAL_NVIC_SetPriority) for HAL_NVIC_SetPriority
    tim.o(i.HAL_TIM_Base_MspInit) refers to stm32f4xx_hal_cortex.o(i.HAL_NVIC_EnableIRQ) for HAL_NVIC_EnableIRQ
    tim.o(i.MX_TIM7_Init) refers to stm32f4xx_hal_tim.o(i.HAL_TIM_Base_Init) for HAL_TIM_Base_Init
    tim.o(i.MX_TIM7_Init) refers to main.o(i.Error_Handler) for Error_Handler
    tim.o(i.MX_TIM7_Init) refers to stm32f4xx_hal_tim_ex.o(i.HAL_TIMEx_MasterConfigSynchronization) for HAL_TIMEx_MasterConfigSynchronization
    tim.o(i.MX_TIM7_Init) refers to tim.o(.bss) for htim7
    usart.o(i.HAL_UART_MspDeInit) refers to stm32f4xx_hal_gpio.o(i.HAL_GPIO_DeInit) for HAL_GPIO_DeInit
    usart.o(i.HAL_UART_MspDeInit) refers to stm32f4xx_hal_cortex.o(i.HAL_NVIC_DisableIRQ) for HAL_NVIC_DisableIRQ
    usart.o(i.HAL_UART_MspInit) refers to memseta.o(.text) for __aeabi_memclr4
    usart.o(i.HAL_UART_MspInit) refers to stm32f4xx_hal_gpio.o(i.HAL_GPIO_Init) for HAL_GPIO_Init
    usart.o(i.HAL_UART_MspInit) refers to stm32f4xx_hal_cortex.o(i.HAL_NVIC_SetPriority) for HAL_NVIC_SetPriority
    usart.o(i.HAL_UART_MspInit) refers to stm32f4xx_hal_cortex.o(i.HAL_NVIC_EnableIRQ) for HAL_NVIC_EnableIRQ
    usart.o(i.MX_UART4_Init) refers to stm32f4xx_hal_uart.o(i.HAL_UART_Init) for HAL_UART_Init
    usart.o(i.MX_UART4_Init) refers to main.o(i.Error_Handler) for Error_Handler
    usart.o(i.MX_UART4_Init) refers to usart.o(.bss) for huart4
    usart.o(i.fgetc) refers to stm32f4xx_hal_uart.o(i.HAL_UART_Receive) for HAL_UART_Receive
    usart.o(i.fgetc) refers to usart.o(.bss) for huart4
    usart.o(i.fputc) refers to stm32f4xx_hal_uart.o(i.HAL_UART_Transmit) for HAL_UART_Transmit
    usart.o(i.fputc) refers to usart.o(.bss) for huart4
    stm32f4xx_it.o(i.CAN1_RX0_IRQHandler) refers to stm32f4xx_hal_can.o(i.HAL_CAN_IRQHandler) for HAL_CAN_IRQHandler
    stm32f4xx_it.o(i.CAN1_RX0_IRQHandler) refers to can.o(.bss) for hcan1
    stm32f4xx_it.o(i.CAN1_RX1_IRQHandler) refers to stm32f4xx_hal_can.o(i.HAL_CAN_IRQHandler) for HAL_CAN_IRQHandler
    stm32f4xx_it.o(i.CAN1_RX1_IRQHandler) refers to can.o(.bss) for hcan1
    stm32f4xx_it.o(i.CAN1_TX_IRQHandler) refers to stm32f4xx_hal_can.o(i.HAL_CAN_IRQHandler) for HAL_CAN_IRQHandler
    stm32f4xx_it.o(i.CAN1_TX_IRQHandler) refers to can.o(.bss) for hcan1
    stm32f4xx_it.o(i.EXTI15_10_IRQHandler) refers to stm32f4xx_hal_gpio.o(i.HAL_GPIO_EXTI_IRQHandler) for HAL_GPIO_EXTI_IRQHandler
    stm32f4xx_it.o(i.EXTI9_5_IRQHandler) refers to stm32f4xx_hal_gpio.o(i.HAL_GPIO_EXTI_IRQHandler) for HAL_GPIO_EXTI_IRQHandler
    stm32f4xx_it.o(i.TIM6_DAC_IRQHandler) refers to stm32f4xx_hal_tim.o(i.HAL_TIM_IRQHandler) for HAL_TIM_IRQHandler
    stm32f4xx_it.o(i.TIM6_DAC_IRQHandler) refers to stm32f4xx_hal_timebase_tim.o(.bss) for htim6
    stm32f4xx_it.o(i.TIM7_IRQHandler) refers to stm32f4xx_hal_tim.o(i.HAL_TIM_IRQHandler) for HAL_TIM_IRQHandler
    stm32f4xx_it.o(i.TIM7_IRQHandler) refers to tim.o(.bss) for htim7
    stm32f4xx_it.o(i.UART4_IRQHandler) refers to stm32f4xx_hal_uart.o(i.HAL_UART_IRQHandler) for HAL_UART_IRQHandler
    stm32f4xx_it.o(i.UART4_IRQHandler) refers to usart.o(.bss) for huart4
    stm32f4xx_hal_timebase_tim.o(i.HAL_InitTick) refers to stm32f4xx_hal_cortex.o(i.HAL_NVIC_SetPriority) for HAL_NVIC_SetPriority
    stm32f4xx_hal_timebase_tim.o(i.HAL_InitTick) refers to stm32f4xx_hal_cortex.o(i.HAL_NVIC_EnableIRQ) for HAL_NVIC_EnableIRQ
    stm32f4xx_hal_timebase_tim.o(i.HAL_InitTick) refers to stm32f4xx_hal_rcc.o(i.HAL_RCC_GetClockConfig) for HAL_RCC_GetClockConfig
    stm32f4xx_hal_timebase_tim.o(i.HAL_InitTick) refers to stm32f4xx_hal_rcc.o(i.HAL_RCC_GetPCLK1Freq) for HAL_RCC_GetPCLK1Freq
    stm32f4xx_hal_timebase_tim.o(i.HAL_InitTick) refers to stm32f4xx_hal_tim.o(i.HAL_TIM_Base_Init) for HAL_TIM_Base_Init
    stm32f4xx_hal_timebase_tim.o(i.HAL_InitTick) refers to stm32f4xx_hal_tim.o(i.HAL_TIM_Base_Start_IT) for HAL_TIM_Base_Start_IT
    stm32f4xx_hal_timebase_tim.o(i.HAL_InitTick) refers to stm32f4xx_hal_timebase_tim.o(.bss) for htim6
    stm32f4xx_hal_timebase_tim.o(i.HAL_ResumeTick) refers to stm32f4xx_hal_timebase_tim.o(.bss) for htim6
    stm32f4xx_hal_timebase_tim.o(i.HAL_SuspendTick) refers to stm32f4xx_hal_timebase_tim.o(.bss) for htim6
    stm32f4xx_hal_can.o(i.HAL_CAN_DeInit) refers to stm32f4xx_hal_can.o(i.HAL_CAN_Stop) for HAL_CAN_Stop
    stm32f4xx_hal_can.o(i.HAL_CAN_DeInit) refers to can.o(i.HAL_CAN_MspDeInit) for HAL_CAN_MspDeInit
    stm32f4xx_hal_can.o(i.HAL_CAN_IRQHandler) refers to co_driver_stm32.o(i.HAL_CAN_TxMailbox0CompleteCallback) for HAL_CAN_TxMailbox0CompleteCallback
    stm32f4xx_hal_can.o(i.HAL_CAN_IRQHandler) refers to stm32f4xx_hal_can.o(i.HAL_CAN_TxMailbox0AbortCallback) for HAL_CAN_TxMailbox0AbortCallback
    stm32f4xx_hal_can.o(i.HAL_CAN_IRQHandler) refers to co_driver_stm32.o(i.HAL_CAN_TxMailbox1CompleteCallback) for HAL_CAN_TxMailbox1CompleteCallback
    stm32f4xx_hal_can.o(i.HAL_CAN_IRQHandler) refers to stm32f4xx_hal_can.o(i.HAL_CAN_TxMailbox1AbortCallback) for HAL_CAN_TxMailbox1AbortCallback
    stm32f4xx_hal_can.o(i.HAL_CAN_IRQHandler) refers to co_driver_stm32.o(i.HAL_CAN_TxMailbox2CompleteCallback) for HAL_CAN_TxMailbox2CompleteCallback
    stm32f4xx_hal_can.o(i.HAL_CAN_IRQHandler) refers to stm32f4xx_hal_can.o(i.HAL_CAN_TxMailbox2AbortCallback) for HAL_CAN_TxMailbox2AbortCallback
    stm32f4xx_hal_can.o(i.HAL_CAN_IRQHandler) refers to stm32f4xx_hal_can.o(i.HAL_CAN_RxFifo0FullCallback) for HAL_CAN_RxFifo0FullCallback
    stm32f4xx_hal_can.o(i.HAL_CAN_IRQHandler) refers to co_driver_stm32.o(i.HAL_CAN_RxFifo0MsgPendingCallback) for HAL_CAN_RxFifo0MsgPendingCallback
    stm32f4xx_hal_can.o(i.HAL_CAN_IRQHandler) refers to stm32f4xx_hal_can.o(i.HAL_CAN_RxFifo1FullCallback) for HAL_CAN_RxFifo1FullCallback
    stm32f4xx_hal_can.o(i.HAL_CAN_IRQHandler) refers to co_driver_stm32.o(i.HAL_CAN_RxFifo1MsgPendingCallback) for HAL_CAN_RxFifo1MsgPendingCallback
    stm32f4xx_hal_can.o(i.HAL_CAN_IRQHandler) refers to stm32f4xx_hal_can.o(i.HAL_CAN_SleepCallback) for HAL_CAN_SleepCallback
    stm32f4xx_hal_can.o(i.HAL_CAN_IRQHandler) refers to stm32f4xx_hal_can.o(i.HAL_CAN_WakeUpFromRxMsgCallback) for HAL_CAN_WakeUpFromRxMsgCallback
    stm32f4xx_hal_can.o(i.HAL_CAN_IRQHandler) refers to stm32f4xx_hal_can.o(i.HAL_CAN_ErrorCallback) for HAL_CAN_ErrorCallback
    stm32f4xx_hal_can.o(i.HAL_CAN_Init) refers to can.o(i.HAL_CAN_MspInit) for HAL_CAN_MspInit
    stm32f4xx_hal_can.o(i.HAL_CAN_Init) refers to stm32f4xx_hal.o(i.HAL_GetTick) for HAL_GetTick
    stm32f4xx_hal_can.o(i.HAL_CAN_Start) refers to stm32f4xx_hal.o(i.HAL_GetTick) for HAL_GetTick
    stm32f4xx_hal_can.o(i.HAL_CAN_Stop) refers to stm32f4xx_hal.o(i.HAL_GetTick) for HAL_GetTick
    stm32f4xx_hal_rcc.o(i.HAL_RCC_ClockConfig) refers to stm32f4xx_hal.o(i.HAL_GetTick) for HAL_GetTick
    stm32f4xx_hal_rcc.o(i.HAL_RCC_ClockConfig) refers to stm32f4xx_hal_rcc.o(i.HAL_RCC_GetSysClockFreq) for HAL_RCC_GetSysClockFreq
    stm32f4xx_hal_rcc.o(i.HAL_RCC_ClockConfig) refers to stm32f4xx_hal_timebase_tim.o(i.HAL_InitTick) for HAL_InitTick
    stm32f4xx_hal_rcc.o(i.HAL_RCC_ClockConfig) refers to system_stm32f4xx.o(.constdata) for AHBPrescTable
    stm32f4xx_hal_rcc.o(i.HAL_RCC_ClockConfig) refers to system_stm32f4xx.o(.data) for SystemCoreClock
    stm32f4xx_hal_rcc.o(i.HAL_RCC_ClockConfig) refers to stm32f4xx_hal.o(.data) for uwTickPrio
    stm32f4xx_hal_rcc.o(i.HAL_RCC_GetHCLKFreq) refers to system_stm32f4xx.o(.data) for SystemCoreClock
    stm32f4xx_hal_rcc.o(i.HAL_RCC_GetPCLK1Freq) refers to stm32f4xx_hal_rcc.o(i.HAL_RCC_GetHCLKFreq) for HAL_RCC_GetHCLKFreq
    stm32f4xx_hal_rcc.o(i.HAL_RCC_GetPCLK1Freq) refers to system_stm32f4xx.o(.constdata) for APBPrescTable
    stm32f4xx_hal_rcc.o(i.HAL_RCC_GetPCLK2Freq) refers to stm32f4xx_hal_rcc.o(i.HAL_RCC_GetHCLKFreq) for HAL_RCC_GetHCLKFreq
    stm32f4xx_hal_rcc.o(i.HAL_RCC_GetPCLK2Freq) refers to system_stm32f4xx.o(.constdata) for APBPrescTable
    stm32f4xx_hal_rcc.o(i.HAL_RCC_GetSysClockFreq) refers to uldiv.o(.text) for __aeabi_uldivmod
    stm32f4xx_hal_rcc.o(i.HAL_RCC_MCOConfig) refers to stm32f4xx_hal_gpio.o(i.HAL_GPIO_Init) for HAL_GPIO_Init
    stm32f4xx_hal_rcc.o(i.HAL_RCC_NMI_IRQHandler) refers to stm32f4xx_hal_rcc.o(i.HAL_RCC_CSSCallback) for HAL_RCC_CSSCallback
    stm32f4xx_hal_rcc.o(i.HAL_RCC_OscConfig) refers to stm32f4xx_hal.o(i.HAL_GetTick) for HAL_GetTick
    stm32f4xx_hal_rcc_ex.o(i.HAL_RCCEx_DisablePLLI2S) refers to stm32f4xx_hal.o(i.HAL_GetTick) for HAL_GetTick
    stm32f4xx_hal_rcc_ex.o(i.HAL_RCCEx_EnablePLLI2S) refers to stm32f4xx_hal.o(i.HAL_GetTick) for HAL_GetTick
    stm32f4xx_hal_rcc_ex.o(i.HAL_RCCEx_PeriphCLKConfig) refers to stm32f4xx_hal.o(i.HAL_GetTick) for HAL_GetTick
    stm32f4xx_hal_rcc_ex.o(i.HAL_RCC_DeInit) refers to stm32f4xx_hal.o(i.HAL_GetTick) for HAL_GetTick
    stm32f4xx_hal_rcc_ex.o(i.HAL_RCC_DeInit) refers to stm32f4xx_hal_timebase_tim.o(i.HAL_InitTick) for HAL_InitTick
    stm32f4xx_hal_rcc_ex.o(i.HAL_RCC_DeInit) refers to system_stm32f4xx.o(.data) for SystemCoreClock
    stm32f4xx_hal_rcc_ex.o(i.HAL_RCC_DeInit) refers to stm32f4xx_hal.o(.data) for uwTickPrio
    stm32f4xx_hal_flash.o(i.FLASH_SetErrorCode) refers to stm32f4xx_hal_flash.o(.bss) for pFlash
    stm32f4xx_hal_flash.o(i.FLASH_WaitForLastOperation) refers to stm32f4xx_hal.o(i.HAL_GetTick) for HAL_GetTick
    stm32f4xx_hal_flash.o(i.FLASH_WaitForLastOperation) refers to stm32f4xx_hal_flash.o(i.FLASH_SetErrorCode) for FLASH_SetErrorCode
    stm32f4xx_hal_flash.o(i.FLASH_WaitForLastOperation) refers to stm32f4xx_hal_flash.o(.bss) for pFlash
    stm32f4xx_hal_flash.o(i.HAL_FLASH_GetError) refers to stm32f4xx_hal_flash.o(.bss) for pFlash
    stm32f4xx_hal_flash.o(i.HAL_FLASH_IRQHandler) refers to stm32f4xx_hal_flash.o(i.FLASH_SetErrorCode) for FLASH_SetErrorCode
    stm32f4xx_hal_flash.o(i.HAL_FLASH_IRQHandler) refers to stm32f4xx_hal_flash.o(i.HAL_FLASH_OperationErrorCallback) for HAL_FLASH_OperationErrorCallback
    stm32f4xx_hal_flash.o(i.HAL_FLASH_IRQHandler) refers to stm32f4xx_hal_flash.o(i.HAL_FLASH_EndOfOperationCallback) for HAL_FLASH_EndOfOperationCallback
    stm32f4xx_hal_flash.o(i.HAL_FLASH_IRQHandler) refers to stm32f4xx_hal_flash_ex.o(i.FLASH_Erase_Sector) for FLASH_Erase_Sector
    stm32f4xx_hal_flash.o(i.HAL_FLASH_IRQHandler) refers to stm32f4xx_hal_flash_ex.o(i.FLASH_FlushCaches) for FLASH_FlushCaches
    stm32f4xx_hal_flash.o(i.HAL_FLASH_IRQHandler) refers to stm32f4xx_hal_flash.o(.bss) for pFlash
    stm32f4xx_hal_flash.o(i.HAL_FLASH_OB_Launch) refers to stm32f4xx_hal_flash.o(i.FLASH_WaitForLastOperation) for FLASH_WaitForLastOperation
    stm32f4xx_hal_flash.o(i.HAL_FLASH_Program) refers to stm32f4xx_hal_flash.o(i.FLASH_WaitForLastOperation) for FLASH_WaitForLastOperation
    stm32f4xx_hal_flash.o(i.HAL_FLASH_Program) refers to stm32f4xx_hal_flash.o(i.FLASH_Program_Byte) for FLASH_Program_Byte
    stm32f4xx_hal_flash.o(i.HAL_FLASH_Program) refers to stm32f4xx_hal_flash.o(i.FLASH_Program_HalfWord) for FLASH_Program_HalfWord
    stm32f4xx_hal_flash.o(i.HAL_FLASH_Program) refers to stm32f4xx_hal_flash.o(i.FLASH_Program_Word) for FLASH_Program_Word
    stm32f4xx_hal_flash.o(i.HAL_FLASH_Program) refers to stm32f4xx_hal_flash.o(i.FLASH_Program_DoubleWord) for FLASH_Program_DoubleWord
    stm32f4xx_hal_flash.o(i.HAL_FLASH_Program) refers to stm32f4xx_hal_flash.o(.bss) for pFlash
    stm32f4xx_hal_flash.o(i.HAL_FLASH_Program_IT) refers to stm32f4xx_hal_flash.o(i.FLASH_Program_Byte) for FLASH_Program_Byte
    stm32f4xx_hal_flash.o(i.HAL_FLASH_Program_IT) refers to stm32f4xx_hal_flash.o(i.FLASH_Program_HalfWord) for FLASH_Program_HalfWord
    stm32f4xx_hal_flash.o(i.HAL_FLASH_Program_IT) refers to stm32f4xx_hal_flash.o(i.FLASH_Program_Word) for FLASH_Program_Word
    stm32f4xx_hal_flash.o(i.HAL_FLASH_Program_IT) refers to stm32f4xx_hal_flash.o(i.FLASH_Program_DoubleWord) for FLASH_Program_DoubleWord
    stm32f4xx_hal_flash.o(i.HAL_FLASH_Program_IT) refers to stm32f4xx_hal_flash.o(.bss) for pFlash
    stm32f4xx_hal_flash_ex.o(i.FLASH_OB_DisableWRP) refers to stm32f4xx_hal_flash.o(i.FLASH_WaitForLastOperation) for FLASH_WaitForLastOperation
    stm32f4xx_hal_flash_ex.o(i.FLASH_OB_EnableWRP) refers to stm32f4xx_hal_flash.o(i.FLASH_WaitForLastOperation) for FLASH_WaitForLastOperation
    stm32f4xx_hal_flash_ex.o(i.FLASH_OB_RDP_LevelConfig) refers to stm32f4xx_hal_flash.o(i.FLASH_WaitForLastOperation) for FLASH_WaitForLastOperation
    stm32f4xx_hal_flash_ex.o(i.FLASH_OB_UserConfig) refers to stm32f4xx_hal_flash.o(i.FLASH_WaitForLastOperation) for FLASH_WaitForLastOperation
    stm32f4xx_hal_flash_ex.o(i.HAL_FLASHEx_Erase) refers to stm32f4xx_hal_flash.o(i.FLASH_WaitForLastOperation) for FLASH_WaitForLastOperation
    stm32f4xx_hal_flash_ex.o(i.HAL_FLASHEx_Erase) refers to stm32f4xx_hal_flash_ex.o(i.FLASH_MassErase) for FLASH_MassErase
    stm32f4xx_hal_flash_ex.o(i.HAL_FLASHEx_Erase) refers to stm32f4xx_hal_flash_ex.o(i.FLASH_Erase_Sector) for FLASH_Erase_Sector
    stm32f4xx_hal_flash_ex.o(i.HAL_FLASHEx_Erase) refers to stm32f4xx_hal_flash_ex.o(i.FLASH_FlushCaches) for FLASH_FlushCaches
    stm32f4xx_hal_flash_ex.o(i.HAL_FLASHEx_Erase) refers to stm32f4xx_hal_flash.o(.bss) for pFlash
    stm32f4xx_hal_flash_ex.o(i.HAL_FLASHEx_Erase_IT) refers to stm32f4xx_hal_flash_ex.o(i.FLASH_MassErase) for FLASH_MassErase
    stm32f4xx_hal_flash_ex.o(i.HAL_FLASHEx_Erase_IT) refers to stm32f4xx_hal_flash_ex.o(i.FLASH_Erase_Sector) for FLASH_Erase_Sector
    stm32f4xx_hal_flash_ex.o(i.HAL_FLASHEx_Erase_IT) refers to stm32f4xx_hal_flash.o(.bss) for pFlash
    stm32f4xx_hal_flash_ex.o(i.HAL_FLASHEx_OBGetConfig) refers to stm32f4xx_hal_flash_ex.o(i.FLASH_OB_GetWRP) for FLASH_OB_GetWRP
    stm32f4xx_hal_flash_ex.o(i.HAL_FLASHEx_OBGetConfig) refers to stm32f4xx_hal_flash_ex.o(i.FLASH_OB_GetRDP) for FLASH_OB_GetRDP
    stm32f4xx_hal_flash_ex.o(i.HAL_FLASHEx_OBGetConfig) refers to stm32f4xx_hal_flash_ex.o(i.FLASH_OB_GetUser) for FLASH_OB_GetUser
    stm32f4xx_hal_flash_ex.o(i.HAL_FLASHEx_OBGetConfig) refers to stm32f4xx_hal_flash_ex.o(i.FLASH_OB_GetBOR) for FLASH_OB_GetBOR
    stm32f4xx_hal_flash_ex.o(i.HAL_FLASHEx_OBProgram) refers to stm32f4xx_hal_flash_ex.o(i.FLASH_OB_EnableWRP) for FLASH_OB_EnableWRP
    stm32f4xx_hal_flash_ex.o(i.HAL_FLASHEx_OBProgram) refers to stm32f4xx_hal_flash_ex.o(i.FLASH_OB_DisableWRP) for FLASH_OB_DisableWRP
    stm32f4xx_hal_flash_ex.o(i.HAL_FLASHEx_OBProgram) refers to stm32f4xx_hal_flash_ex.o(i.FLASH_OB_RDP_LevelConfig) for FLASH_OB_RDP_LevelConfig
    stm32f4xx_hal_flash_ex.o(i.HAL_FLASHEx_OBProgram) refers to stm32f4xx_hal_flash_ex.o(i.FLASH_OB_UserConfig) for FLASH_OB_UserConfig
    stm32f4xx_hal_flash_ex.o(i.HAL_FLASHEx_OBProgram) refers to stm32f4xx_hal_flash_ex.o(i.FLASH_OB_BOR_LevelConfig) for FLASH_OB_BOR_LevelConfig
    stm32f4xx_hal_flash_ex.o(i.HAL_FLASHEx_OBProgram) refers to stm32f4xx_hal_flash.o(.bss) for pFlash
    stm32f4xx_hal_gpio.o(i.HAL_GPIO_EXTI_IRQHandler) refers to key.o(i.HAL_GPIO_EXTI_Callback) for HAL_GPIO_EXTI_Callback
    stm32f4xx_hal_dma_ex.o(i.HAL_DMAEx_MultiBufferStart) refers to stm32f4xx_hal_dma_ex.o(i.DMA_MultiBufferSetConfig) for DMA_MultiBufferSetConfig
    stm32f4xx_hal_dma_ex.o(i.HAL_DMAEx_MultiBufferStart_IT) refers to stm32f4xx_hal_dma_ex.o(i.DMA_MultiBufferSetConfig) for DMA_MultiBufferSetConfig
    stm32f4xx_hal_dma.o(i.DMA_CalcBaseAndBitshift) refers to stm32f4xx_hal_dma.o(.constdata) for flagBitshiftOffset
    stm32f4xx_hal_dma.o(i.HAL_DMA_Abort) refers to stm32f4xx_hal.o(i.HAL_GetTick) for HAL_GetTick
    stm32f4xx_hal_dma.o(i.HAL_DMA_DeInit) refers to stm32f4xx_hal_dma.o(i.DMA_CalcBaseAndBitshift) for DMA_CalcBaseAndBitshift
    stm32f4xx_hal_dma.o(i.HAL_DMA_IRQHandler) refers to system_stm32f4xx.o(.data) for SystemCoreClock
    stm32f4xx_hal_dma.o(i.HAL_DMA_Init) refers to stm32f4xx_hal.o(i.HAL_GetTick) for HAL_GetTick
    stm32f4xx_hal_dma.o(i.HAL_DMA_Init) refers to stm32f4xx_hal_dma.o(i.DMA_CheckFifoParam) for DMA_CheckFifoParam
    stm32f4xx_hal_dma.o(i.HAL_DMA_Init) refers to stm32f4xx_hal_dma.o(i.DMA_CalcBaseAndBitshift) for DMA_CalcBaseAndBitshift
    stm32f4xx_hal_dma.o(i.HAL_DMA_PollForTransfer) refers to stm32f4xx_hal.o(i.HAL_GetTick) for HAL_GetTick
    stm32f4xx_hal_dma.o(i.HAL_DMA_PollForTransfer) refers to stm32f4xx_hal_dma.o(i.HAL_DMA_Abort) for HAL_DMA_Abort
    stm32f4xx_hal_dma.o(i.HAL_DMA_Start) refers to stm32f4xx_hal_dma.o(i.DMA_SetConfig) for DMA_SetConfig
    stm32f4xx_hal_dma.o(i.HAL_DMA_Start_IT) refers to stm32f4xx_hal_dma.o(i.DMA_SetConfig) for DMA_SetConfig
    stm32f4xx_hal_pwr.o(i.HAL_PWR_PVD_IRQHandler) refers to stm32f4xx_hal_pwr.o(i.HAL_PWR_PVDCallback) for HAL_PWR_PVDCallback
    stm32f4xx_hal_pwr_ex.o(i.HAL_PWREx_ControlVoltageScaling) refers to stm32f4xx_hal.o(i.HAL_GetTick) for HAL_GetTick
    stm32f4xx_hal_pwr_ex.o(i.HAL_PWREx_DisableBkUpReg) refers to stm32f4xx_hal.o(i.HAL_GetTick) for HAL_GetTick
    stm32f4xx_hal_pwr_ex.o(i.HAL_PWREx_EnableBkUpReg) refers to stm32f4xx_hal.o(i.HAL_GetTick) for HAL_GetTick
    stm32f4xx_hal_cortex.o(i.HAL_NVIC_GetPriorityGrouping) refers to stm32f4xx_hal_cortex.o(i.__NVIC_GetPriorityGrouping) for __NVIC_GetPriorityGrouping
    stm32f4xx_hal_cortex.o(i.HAL_NVIC_SetPriority) refers to stm32f4xx_hal_cortex.o(i.__NVIC_GetPriorityGrouping) for __NVIC_GetPriorityGrouping
    stm32f4xx_hal_cortex.o(i.HAL_NVIC_SetPriority) refers to stm32f4xx_hal_cortex.o(i.__NVIC_SetPriority) for __NVIC_SetPriority
    stm32f4xx_hal_cortex.o(i.HAL_SYSTICK_Config) refers to stm32f4xx_hal_cortex.o(i.__NVIC_SetPriority) for __NVIC_SetPriority
    stm32f4xx_hal_cortex.o(i.HAL_SYSTICK_IRQHandler) refers to stm32f4xx_hal_cortex.o(i.HAL_SYSTICK_Callback) for HAL_SYSTICK_Callback
    stm32f4xx_hal.o(i.HAL_DeInit) refers to stm32f4xx_hal.o(i.HAL_MspDeInit) for HAL_MspDeInit
    stm32f4xx_hal.o(i.HAL_Delay) refers to stm32f4xx_hal.o(i.HAL_GetTick) for HAL_GetTick
    stm32f4xx_hal.o(i.HAL_Delay) refers to stm32f4xx_hal.o(.data) for uwTickFreq
    stm32f4xx_hal.o(i.HAL_GetTick) refers to stm32f4xx_hal.o(.data) for uwTick
    stm32f4xx_hal.o(i.HAL_GetTickFreq) refers to stm32f4xx_hal.o(.data) for uwTickFreq
    stm32f4xx_hal.o(i.HAL_GetTickPrio) refers to stm32f4xx_hal.o(.data) for uwTickPrio
    stm32f4xx_hal.o(i.HAL_IncTick) refers to stm32f4xx_hal.o(.data) for uwTick
    stm32f4xx_hal.o(i.HAL_Init) refers to stm32f4xx_hal_cortex.o(i.HAL_NVIC_SetPriorityGrouping) for HAL_NVIC_SetPriorityGrouping
    stm32f4xx_hal.o(i.HAL_Init) refers to stm32f4xx_hal_timebase_tim.o(i.HAL_InitTick) for HAL_InitTick
    stm32f4xx_hal.o(i.HAL_Init) refers to stm32f4xx_hal_msp.o(i.HAL_MspInit) for HAL_MspInit
    stm32f4xx_hal.o(i.HAL_InitTick) refers to stm32f4xx_hal_cortex.o(i.HAL_SYSTICK_Config) for HAL_SYSTICK_Config
    stm32f4xx_hal.o(i.HAL_InitTick) refers to stm32f4xx_hal_cortex.o(i.HAL_NVIC_SetPriority) for HAL_NVIC_SetPriority
    stm32f4xx_hal.o(i.HAL_InitTick) refers to stm32f4xx_hal.o(.data) for uwTickFreq
    stm32f4xx_hal.o(i.HAL_InitTick) refers to system_stm32f4xx.o(.data) for SystemCoreClock
    stm32f4xx_hal.o(i.HAL_SetTickFreq) refers to stm32f4xx_hal_timebase_tim.o(i.HAL_InitTick) for HAL_InitTick
    stm32f4xx_hal.o(i.HAL_SetTickFreq) refers to stm32f4xx_hal.o(.data) for uwTickFreq
    stm32f4xx_hal_tim.o(i.HAL_TIM_Base_DeInit) refers to tim.o(i.HAL_TIM_Base_MspDeInit) for HAL_TIM_Base_MspDeInit
    stm32f4xx_hal_tim.o(i.HAL_TIM_Base_Init) refers to tim.o(i.HAL_TIM_Base_MspInit) for HAL_TIM_Base_MspInit
    stm32f4xx_hal_tim.o(i.HAL_TIM_Base_Init) refers to stm32f4xx_hal_tim.o(i.TIM_Base_SetConfig) for TIM_Base_SetConfig
    stm32f4xx_hal_tim.o(i.HAL_TIM_Base_Start_DMA) refers to stm32f4xx_hal_dma.o(i.HAL_DMA_Start_IT) for HAL_DMA_Start_IT
    stm32f4xx_hal_tim.o(i.HAL_TIM_Base_Start_DMA) refers to stm32f4xx_hal_tim.o(i.TIM_DMAPeriodElapsedCplt) for TIM_DMAPeriodElapsedCplt
    stm32f4xx_hal_tim.o(i.HAL_TIM_Base_Start_DMA) refers to stm32f4xx_hal_tim.o(i.TIM_DMAPeriodElapsedHalfCplt) for TIM_DMAPeriodElapsedHalfCplt
    stm32f4xx_hal_tim.o(i.HAL_TIM_Base_Start_DMA) refers to stm32f4xx_hal_tim.o(i.TIM_DMAError) for TIM_DMAError
    stm32f4xx_hal_tim.o(i.HAL_TIM_Base_Stop_DMA) refers to stm32f4xx_hal_dma.o(i.HAL_DMA_Abort_IT) for HAL_DMA_Abort_IT
    stm32f4xx_hal_tim.o(i.HAL_TIM_ConfigClockSource) refers to stm32f4xx_hal_tim.o(i.TIM_ETR_SetConfig) for TIM_ETR_SetConfig
    stm32f4xx_hal_tim.o(i.HAL_TIM_ConfigClockSource) refers to stm32f4xx_hal_tim.o(i.TIM_TI1_ConfigInputStage) for TIM_TI1_ConfigInputStage
    stm32f4xx_hal_tim.o(i.HAL_TIM_ConfigClockSource) refers to stm32f4xx_hal_tim.o(i.TIM_ITRx_SetConfig) for TIM_ITRx_SetConfig
    stm32f4xx_hal_tim.o(i.HAL_TIM_ConfigClockSource) refers to stm32f4xx_hal_tim.o(i.TIM_TI2_ConfigInputStage) for TIM_TI2_ConfigInputStage
    stm32f4xx_hal_tim.o(i.HAL_TIM_ConfigOCrefClear) refers to stm32f4xx_hal_tim.o(i.TIM_ETR_SetConfig) for TIM_ETR_SetConfig
    stm32f4xx_hal_tim.o(i.HAL_TIM_DMABurst_MultiReadStart) refers to stm32f4xx_hal_dma.o(i.HAL_DMA_Start_IT) for HAL_DMA_Start_IT
    stm32f4xx_hal_tim.o(i.HAL_TIM_DMABurst_MultiReadStart) refers to stm32f4xx_hal_tim.o(i.TIM_DMAPeriodElapsedCplt) for TIM_DMAPeriodElapsedCplt
    stm32f4xx_hal_tim.o(i.HAL_TIM_DMABurst_MultiReadStart) refers to stm32f4xx_hal_tim.o(i.TIM_DMAPeriodElapsedHalfCplt) for TIM_DMAPeriodElapsedHalfCplt
    stm32f4xx_hal_tim.o(i.HAL_TIM_DMABurst_MultiReadStart) refers to stm32f4xx_hal_tim.o(i.TIM_DMAError) for TIM_DMAError
    stm32f4xx_hal_tim.o(i.HAL_TIM_DMABurst_MultiReadStart) refers to stm32f4xx_hal_tim.o(i.TIM_DMACaptureCplt) for TIM_DMACaptureCplt
    stm32f4xx_hal_tim.o(i.HAL_TIM_DMABurst_MultiReadStart) refers to stm32f4xx_hal_tim.o(i.TIM_DMACaptureHalfCplt) for TIM_DMACaptureHalfCplt
    stm32f4xx_hal_tim.o(i.HAL_TIM_DMABurst_MultiReadStart) refers to stm32f4xx_hal_tim_ex.o(i.TIMEx_DMACommutationCplt) for TIMEx_DMACommutationCplt
    stm32f4xx_hal_tim.o(i.HAL_TIM_DMABurst_MultiReadStart) refers to stm32f4xx_hal_tim_ex.o(i.TIMEx_DMACommutationHalfCplt) for TIMEx_DMACommutationHalfCplt
    stm32f4xx_hal_tim.o(i.HAL_TIM_DMABurst_MultiReadStart) refers to stm32f4xx_hal_tim.o(i.TIM_DMATriggerCplt) for TIM_DMATriggerCplt
    stm32f4xx_hal_tim.o(i.HAL_TIM_DMABurst_MultiReadStart) refers to stm32f4xx_hal_tim.o(i.TIM_DMATriggerHalfCplt) for TIM_DMATriggerHalfCplt
    stm32f4xx_hal_tim.o(i.HAL_TIM_DMABurst_MultiWriteStart) refers to stm32f4xx_hal_dma.o(i.HAL_DMA_Start_IT) for HAL_DMA_Start_IT
    stm32f4xx_hal_tim.o(i.HAL_TIM_DMABurst_MultiWriteStart) refers to stm32f4xx_hal_tim.o(i.TIM_DMAPeriodElapsedCplt) for TIM_DMAPeriodElapsedCplt
    stm32f4xx_hal_tim.o(i.HAL_TIM_DMABurst_MultiWriteStart) refers to stm32f4xx_hal_tim.o(i.TIM_DMAPeriodElapsedHalfCplt) for TIM_DMAPeriodElapsedHalfCplt
    stm32f4xx_hal_tim.o(i.HAL_TIM_DMABurst_MultiWriteStart) refers to stm32f4xx_hal_tim.o(i.TIM_DMAError) for TIM_DMAError
    stm32f4xx_hal_tim.o(i.HAL_TIM_DMABurst_MultiWriteStart) refers to stm32f4xx_hal_tim.o(i.TIM_DMADelayPulseCplt) for TIM_DMADelayPulseCplt
    stm32f4xx_hal_tim.o(i.HAL_TIM_DMABurst_MultiWriteStart) refers to stm32f4xx_hal_tim.o(i.TIM_DMADelayPulseHalfCplt) for TIM_DMADelayPulseHalfCplt
    stm32f4xx_hal_tim.o(i.HAL_TIM_DMABurst_MultiWriteStart) refers to stm32f4xx_hal_tim_ex.o(i.TIMEx_DMACommutationCplt) for TIMEx_DMACommutationCplt
    stm32f4xx_hal_tim.o(i.HAL_TIM_DMABurst_MultiWriteStart) refers to stm32f4xx_hal_tim_ex.o(i.TIMEx_DMACommutationHalfCplt) for TIMEx_DMACommutationHalfCplt
    stm32f4xx_hal_tim.o(i.HAL_TIM_DMABurst_MultiWriteStart) refers to stm32f4xx_hal_tim.o(i.TIM_DMATriggerCplt) for TIM_DMATriggerCplt
    stm32f4xx_hal_tim.o(i.HAL_TIM_DMABurst_MultiWriteStart) refers to stm32f4xx_hal_tim.o(i.TIM_DMATriggerHalfCplt) for TIM_DMATriggerHalfCplt
    stm32f4xx_hal_tim.o(i.HAL_TIM_DMABurst_ReadStart) refers to stm32f4xx_hal_tim.o(i.HAL_TIM_DMABurst_MultiReadStart) for HAL_TIM_DMABurst_MultiReadStart
    stm32f4xx_hal_tim.o(i.HAL_TIM_DMABurst_ReadStop) refers to stm32f4xx_hal_dma.o(i.HAL_DMA_Abort_IT) for HAL_DMA_Abort_IT
    stm32f4xx_hal_tim.o(i.HAL_TIM_DMABurst_WriteStart) refers to stm32f4xx_hal_tim.o(i.HAL_TIM_DMABurst_MultiWriteStart) for HAL_TIM_DMABurst_MultiWriteStart
    stm32f4xx_hal_tim.o(i.HAL_TIM_DMABurst_WriteStop) refers to stm32f4xx_hal_dma.o(i.HAL_DMA_Abort_IT) for HAL_DMA_Abort_IT
    stm32f4xx_hal_tim.o(i.HAL_TIM_Encoder_DeInit) refers to stm32f4xx_hal_tim.o(i.HAL_TIM_Encoder_MspDeInit) for HAL_TIM_Encoder_MspDeInit
    stm32f4xx_hal_tim.o(i.HAL_TIM_Encoder_Init) refers to stm32f4xx_hal_tim.o(i.HAL_TIM_Encoder_MspInit) for HAL_TIM_Encoder_MspInit
    stm32f4xx_hal_tim.o(i.HAL_TIM_Encoder_Init) refers to stm32f4xx_hal_tim.o(i.TIM_Base_SetConfig) for TIM_Base_SetConfig
    stm32f4xx_hal_tim.o(i.HAL_TIM_Encoder_Start) refers to stm32f4xx_hal_tim.o(i.TIM_CCxChannelCmd) for TIM_CCxChannelCmd
    stm32f4xx_hal_tim.o(i.HAL_TIM_Encoder_Start_DMA) refers to stm32f4xx_hal_dma.o(i.HAL_DMA_Start_IT) for HAL_DMA_Start_IT
    stm32f4xx_hal_tim.o(i.HAL_TIM_Encoder_Start_DMA) refers to stm32f4xx_hal_tim.o(i.TIM_CCxChannelCmd) for TIM_CCxChannelCmd
    stm32f4xx_hal_tim.o(i.HAL_TIM_Encoder_Start_DMA) refers to stm32f4xx_hal_tim.o(i.TIM_DMACaptureCplt) for TIM_DMACaptureCplt
    stm32f4xx_hal_tim.o(i.HAL_TIM_Encoder_Start_DMA) refers to stm32f4xx_hal_tim.o(i.TIM_DMACaptureHalfCplt) for TIM_DMACaptureHalfCplt
    stm32f4xx_hal_tim.o(i.HAL_TIM_Encoder_Start_DMA) refers to stm32f4xx_hal_tim.o(i.TIM_DMAError) for TIM_DMAError
    stm32f4xx_hal_tim.o(i.HAL_TIM_Encoder_Start_IT) refers to stm32f4xx_hal_tim.o(i.TIM_CCxChannelCmd) for TIM_CCxChannelCmd
    stm32f4xx_hal_tim.o(i.HAL_TIM_Encoder_Stop) refers to stm32f4xx_hal_tim.o(i.TIM_CCxChannelCmd) for TIM_CCxChannelCmd
    stm32f4xx_hal_tim.o(i.HAL_TIM_Encoder_Stop_DMA) refers to stm32f4xx_hal_tim.o(i.TIM_CCxChannelCmd) for TIM_CCxChannelCmd
    stm32f4xx_hal_tim.o(i.HAL_TIM_Encoder_Stop_DMA) refers to stm32f4xx_hal_dma.o(i.HAL_DMA_Abort_IT) for HAL_DMA_Abort_IT
    stm32f4xx_hal_tim.o(i.HAL_TIM_Encoder_Stop_IT) refers to stm32f4xx_hal_tim.o(i.TIM_CCxChannelCmd) for TIM_CCxChannelCmd
    stm32f4xx_hal_tim.o(i.HAL_TIM_IC_ConfigChannel) refers to stm32f4xx_hal_tim.o(i.TIM_TI1_SetConfig) for TIM_TI1_SetConfig
    stm32f4xx_hal_tim.o(i.HAL_TIM_IC_ConfigChannel) refers to stm32f4xx_hal_tim.o(i.TIM_TI2_SetConfig) for TIM_TI2_SetConfig
    stm32f4xx_hal_tim.o(i.HAL_TIM_IC_ConfigChannel) refers to stm32f4xx_hal_tim.o(i.TIM_TI3_SetConfig) for TIM_TI3_SetConfig
    stm32f4xx_hal_tim.o(i.HAL_TIM_IC_ConfigChannel) refers to stm32f4xx_hal_tim.o(i.TIM_TI4_SetConfig) for TIM_TI4_SetConfig
    stm32f4xx_hal_tim.o(i.HAL_TIM_IC_DeInit) refers to stm32f4xx_hal_tim.o(i.HAL_TIM_IC_MspDeInit) for HAL_TIM_IC_MspDeInit
    stm32f4xx_hal_tim.o(i.HAL_TIM_IC_Init) refers to stm32f4xx_hal_tim.o(i.HAL_TIM_IC_MspInit) for HAL_TIM_IC_MspInit
    stm32f4xx_hal_tim.o(i.HAL_TIM_IC_Init) refers to stm32f4xx_hal_tim.o(i.TIM_Base_SetConfig) for TIM_Base_SetConfig
    stm32f4xx_hal_tim.o(i.HAL_TIM_IC_Start) refers to stm32f4xx_hal_tim.o(i.TIM_CCxChannelCmd) for TIM_CCxChannelCmd
    stm32f4xx_hal_tim.o(i.HAL_TIM_IC_Start_DMA) refers to stm32f4xx_hal_tim.o(i.TIM_CCxChannelCmd) for TIM_CCxChannelCmd
    stm32f4xx_hal_tim.o(i.HAL_TIM_IC_Start_DMA) refers to stm32f4xx_hal_dma.o(i.HAL_DMA_Start_IT) for HAL_DMA_Start_IT
    stm32f4xx_hal_tim.o(i.HAL_TIM_IC_Start_DMA) refers to stm32f4xx_hal_tim.o(i.TIM_DMACaptureCplt) for TIM_DMACaptureCplt
    stm32f4xx_hal_tim.o(i.HAL_TIM_IC_Start_DMA) refers to stm32f4xx_hal_tim.o(i.TIM_DMACaptureHalfCplt) for TIM_DMACaptureHalfCplt
    stm32f4xx_hal_tim.o(i.HAL_TIM_IC_Start_DMA) refers to stm32f4xx_hal_tim.o(i.TIM_DMAError) for TIM_DMAError
    stm32f4xx_hal_tim.o(i.HAL_TIM_IC_Start_IT) refers to stm32f4xx_hal_tim.o(i.TIM_CCxChannelCmd) for TIM_CCxChannelCmd
    stm32f4xx_hal_tim.o(i.HAL_TIM_IC_Stop) refers to stm32f4xx_hal_tim.o(i.TIM_CCxChannelCmd) for TIM_CCxChannelCmd
    stm32f4xx_hal_tim.o(i.HAL_TIM_IC_Stop_DMA) refers to stm32f4xx_hal_tim.o(i.TIM_CCxChannelCmd) for TIM_CCxChannelCmd
    stm32f4xx_hal_tim.o(i.HAL_TIM_IC_Stop_DMA) refers to stm32f4xx_hal_dma.o(i.HAL_DMA_Abort_IT) for HAL_DMA_Abort_IT
    stm32f4xx_hal_tim.o(i.HAL_TIM_IC_Stop_IT) refers to stm32f4xx_hal_tim.o(i.TIM_CCxChannelCmd) for TIM_CCxChannelCmd
    stm32f4xx_hal_tim.o(i.HAL_TIM_IRQHandler) refers to stm32f4xx_hal_tim.o(i.HAL_TIM_IC_CaptureCallback) for HAL_TIM_IC_CaptureCallback
    stm32f4xx_hal_tim.o(i.HAL_TIM_IRQHandler) refers to stm32f4xx_hal_tim.o(i.HAL_TIM_OC_DelayElapsedCallback) for HAL_TIM_OC_DelayElapsedCallback
    stm32f4xx_hal_tim.o(i.HAL_TIM_IRQHandler) refers to stm32f4xx_hal_tim.o(i.HAL_TIM_PWM_PulseFinishedCallback) for HAL_TIM_PWM_PulseFinishedCallback
    stm32f4xx_hal_tim.o(i.HAL_TIM_IRQHandler) refers to main.o(i.HAL_TIM_PeriodElapsedCallback) for HAL_TIM_PeriodElapsedCallback
    stm32f4xx_hal_tim.o(i.HAL_TIM_IRQHandler) refers to stm32f4xx_hal_tim_ex.o(i.HAL_TIMEx_BreakCallback) for HAL_TIMEx_BreakCallback
    stm32f4xx_hal_tim.o(i.HAL_TIM_IRQHandler) refers to stm32f4xx_hal_tim.o(i.HAL_TIM_TriggerCallback) for HAL_TIM_TriggerCallback
    stm32f4xx_hal_tim.o(i.HAL_TIM_IRQHandler) refers to stm32f4xx_hal_tim_ex.o(i.HAL_TIMEx_CommutCallback) for HAL_TIMEx_CommutCallback
    stm32f4xx_hal_tim.o(i.HAL_TIM_OC_ConfigChannel) refers to stm32f4xx_hal_tim.o(i.TIM_OC1_SetConfig) for TIM_OC1_SetConfig
    stm32f4xx_hal_tim.o(i.HAL_TIM_OC_ConfigChannel) refers to stm32f4xx_hal_tim.o(i.TIM_OC2_SetConfig) for TIM_OC2_SetConfig
    stm32f4xx_hal_tim.o(i.HAL_TIM_OC_ConfigChannel) refers to stm32f4xx_hal_tim.o(i.TIM_OC3_SetConfig) for TIM_OC3_SetConfig
    stm32f4xx_hal_tim.o(i.HAL_TIM_OC_ConfigChannel) refers to stm32f4xx_hal_tim.o(i.TIM_OC4_SetConfig) for TIM_OC4_SetConfig
    stm32f4xx_hal_tim.o(i.HAL_TIM_OC_DeInit) refers to stm32f4xx_hal_tim.o(i.HAL_TIM_OC_MspDeInit) for HAL_TIM_OC_MspDeInit
    stm32f4xx_hal_tim.o(i.HAL_TIM_OC_Init) refers to stm32f4xx_hal_tim.o(i.HAL_TIM_OC_MspInit) for HAL_TIM_OC_MspInit
    stm32f4xx_hal_tim.o(i.HAL_TIM_OC_Init) refers to stm32f4xx_hal_tim.o(i.TIM_Base_SetConfig) for TIM_Base_SetConfig
    stm32f4xx_hal_tim.o(i.HAL_TIM_OC_Start) refers to stm32f4xx_hal_tim.o(i.TIM_CCxChannelCmd) for TIM_CCxChannelCmd
    stm32f4xx_hal_tim.o(i.HAL_TIM_OC_Start_DMA) refers to stm32f4xx_hal_dma.o(i.HAL_DMA_Start_IT) for HAL_DMA_Start_IT
    stm32f4xx_hal_tim.o(i.HAL_TIM_OC_Start_DMA) refers to stm32f4xx_hal_tim.o(i.TIM_CCxChannelCmd) for TIM_CCxChannelCmd
    stm32f4xx_hal_tim.o(i.HAL_TIM_OC_Start_DMA) refers to stm32f4xx_hal_tim.o(i.TIM_DMADelayPulseCplt) for TIM_DMADelayPulseCplt
    stm32f4xx_hal_tim.o(i.HAL_TIM_OC_Start_DMA) refers to stm32f4xx_hal_tim.o(i.TIM_DMADelayPulseHalfCplt) for TIM_DMADelayPulseHalfCplt
    stm32f4xx_hal_tim.o(i.HAL_TIM_OC_Start_DMA) refers to stm32f4xx_hal_tim.o(i.TIM_DMAError) for TIM_DMAError
    stm32f4xx_hal_tim.o(i.HAL_TIM_OC_Start_IT) refers to stm32f4xx_hal_tim.o(i.TIM_CCxChannelCmd) for TIM_CCxChannelCmd
    stm32f4xx_hal_tim.o(i.HAL_TIM_OC_Stop) refers to stm32f4xx_hal_tim.o(i.TIM_CCxChannelCmd) for TIM_CCxChannelCmd
    stm32f4xx_hal_tim.o(i.HAL_TIM_OC_Stop_DMA) refers to stm32f4xx_hal_dma.o(i.HAL_DMA_Abort_IT) for HAL_DMA_Abort_IT
    stm32f4xx_hal_tim.o(i.HAL_TIM_OC_Stop_DMA) refers to stm32f4xx_hal_tim.o(i.TIM_CCxChannelCmd) for TIM_CCxChannelCmd
    stm32f4xx_hal_tim.o(i.HAL_TIM_OC_Stop_IT) refers to stm32f4xx_hal_tim.o(i.TIM_CCxChannelCmd) for TIM_CCxChannelCmd
    stm32f4xx_hal_tim.o(i.HAL_TIM_OnePulse_ConfigChannel) refers to stm32f4xx_hal_tim.o(i.TIM_OC1_SetConfig) for TIM_OC1_SetConfig
    stm32f4xx_hal_tim.o(i.HAL_TIM_OnePulse_ConfigChannel) refers to stm32f4xx_hal_tim.o(i.TIM_OC2_SetConfig) for TIM_OC2_SetConfig
    stm32f4xx_hal_tim.o(i.HAL_TIM_OnePulse_ConfigChannel) refers to stm32f4xx_hal_tim.o(i.TIM_TI1_SetConfig) for TIM_TI1_SetConfig
    stm32f4xx_hal_tim.o(i.HAL_TIM_OnePulse_ConfigChannel) refers to stm32f4xx_hal_tim.o(i.TIM_TI2_SetConfig) for TIM_TI2_SetConfig
    stm32f4xx_hal_tim.o(i.HAL_TIM_OnePulse_DeInit) refers to stm32f4xx_hal_tim.o(i.HAL_TIM_OnePulse_MspDeInit) for HAL_TIM_OnePulse_MspDeInit
    stm32f4xx_hal_tim.o(i.HAL_TIM_OnePulse_Init) refers to stm32f4xx_hal_tim.o(i.HAL_TIM_OnePulse_MspInit) for HAL_TIM_OnePulse_MspInit
    stm32f4xx_hal_tim.o(i.HAL_TIM_OnePulse_Init) refers to stm32f4xx_hal_tim.o(i.TIM_Base_SetConfig) for TIM_Base_SetConfig
    stm32f4xx_hal_tim.o(i.HAL_TIM_OnePulse_Start) refers to stm32f4xx_hal_tim.o(i.TIM_CCxChannelCmd) for TIM_CCxChannelCmd
    stm32f4xx_hal_tim.o(i.HAL_TIM_OnePulse_Start_IT) refers to stm32f4xx_hal_tim.o(i.TIM_CCxChannelCmd) for TIM_CCxChannelCmd
    stm32f4xx_hal_tim.o(i.HAL_TIM_OnePulse_Stop) refers to stm32f4xx_hal_tim.o(i.TIM_CCxChannelCmd) for TIM_CCxChannelCmd
    stm32f4xx_hal_tim.o(i.HAL_TIM_OnePulse_Stop_IT) refers to stm32f4xx_hal_tim.o(i.TIM_CCxChannelCmd) for TIM_CCxChannelCmd
    stm32f4xx_hal_tim.o(i.HAL_TIM_PWM_ConfigChannel) refers to stm32f4xx_hal_tim.o(i.TIM_OC1_SetConfig) for TIM_OC1_SetConfig
    stm32f4xx_hal_tim.o(i.HAL_TIM_PWM_ConfigChannel) refers to stm32f4xx_hal_tim.o(i.TIM_OC2_SetConfig) for TIM_OC2_SetConfig
    stm32f4xx_hal_tim.o(i.HAL_TIM_PWM_ConfigChannel) refers to stm32f4xx_hal_tim.o(i.TIM_OC3_SetConfig) for TIM_OC3_SetConfig
    stm32f4xx_hal_tim.o(i.HAL_TIM_PWM_ConfigChannel) refers to stm32f4xx_hal_tim.o(i.TIM_OC4_SetConfig) for TIM_OC4_SetConfig
    stm32f4xx_hal_tim.o(i.HAL_TIM_PWM_DeInit) refers to stm32f4xx_hal_tim.o(i.HAL_TIM_PWM_MspDeInit) for HAL_TIM_PWM_MspDeInit
    stm32f4xx_hal_tim.o(i.HAL_TIM_PWM_Init) refers to stm32f4xx_hal_tim.o(i.HAL_TIM_PWM_MspInit) for HAL_TIM_PWM_MspInit
    stm32f4xx_hal_tim.o(i.HAL_TIM_PWM_Init) refers to stm32f4xx_hal_tim.o(i.TIM_Base_SetConfig) for TIM_Base_SetConfig
    stm32f4xx_hal_tim.o(i.HAL_TIM_PWM_Start) refers to stm32f4xx_hal_tim.o(i.TIM_CCxChannelCmd) for TIM_CCxChannelCmd
    stm32f4xx_hal_tim.o(i.HAL_TIM_PWM_Start_DMA) refers to stm32f4xx_hal_dma.o(i.HAL_DMA_Start_IT) for HAL_DMA_Start_IT
    stm32f4xx_hal_tim.o(i.HAL_TIM_PWM_Start_DMA) refers to stm32f4xx_hal_tim.o(i.TIM_CCxChannelCmd) for TIM_CCxChannelCmd
    stm32f4xx_hal_tim.o(i.HAL_TIM_PWM_Start_DMA) refers to stm32f4xx_hal_tim.o(i.TIM_DMADelayPulseCplt) for TIM_DMADelayPulseCplt
    stm32f4xx_hal_tim.o(i.HAL_TIM_PWM_Start_DMA) refers to stm32f4xx_hal_tim.o(i.TIM_DMADelayPulseHalfCplt) for TIM_DMADelayPulseHalfCplt
    stm32f4xx_hal_tim.o(i.HAL_TIM_PWM_Start_DMA) refers to stm32f4xx_hal_tim.o(i.TIM_DMAError) for TIM_DMAError
    stm32f4xx_hal_tim.o(i.HAL_TIM_PWM_Start_IT) refers to stm32f4xx_hal_tim.o(i.TIM_CCxChannelCmd) for TIM_CCxChannelCmd
    stm32f4xx_hal_tim.o(i.HAL_TIM_PWM_Stop) refers to stm32f4xx_hal_tim.o(i.TIM_CCxChannelCmd) for TIM_CCxChannelCmd
    stm32f4xx_hal_tim.o(i.HAL_TIM_PWM_Stop_DMA) refers to stm32f4xx_hal_dma.o(i.HAL_DMA_Abort_IT) for HAL_DMA_Abort_IT
    stm32f4xx_hal_tim.o(i.HAL_TIM_PWM_Stop_DMA) refers to stm32f4xx_hal_tim.o(i.TIM_CCxChannelCmd) for TIM_CCxChannelCmd
    stm32f4xx_hal_tim.o(i.HAL_TIM_PWM_Stop_IT) refers to stm32f4xx_hal_tim.o(i.TIM_CCxChannelCmd) for TIM_CCxChannelCmd
    stm32f4xx_hal_tim.o(i.HAL_TIM_SlaveConfigSynchro) refers to stm32f4xx_hal_tim.o(i.TIM_SlaveTimer_SetConfig) for TIM_SlaveTimer_SetConfig
    stm32f4xx_hal_tim.o(i.HAL_TIM_SlaveConfigSynchro_IT) refers to stm32f4xx_hal_tim.o(i.TIM_SlaveTimer_SetConfig) for TIM_SlaveTimer_SetConfig
    stm32f4xx_hal_tim.o(i.TIM_DMACaptureCplt) refers to stm32f4xx_hal_tim.o(i.HAL_TIM_IC_CaptureCallback) for HAL_TIM_IC_CaptureCallback
    stm32f4xx_hal_tim.o(i.TIM_DMACaptureHalfCplt) refers to stm32f4xx_hal_tim.o(i.HAL_TIM_IC_CaptureHalfCpltCallback) for HAL_TIM_IC_CaptureHalfCpltCallback
    stm32f4xx_hal_tim.o(i.TIM_DMADelayPulseCplt) refers to stm32f4xx_hal_tim.o(i.HAL_TIM_PWM_PulseFinishedCallback) for HAL_TIM_PWM_PulseFinishedCallback
    stm32f4xx_hal_tim.o(i.TIM_DMADelayPulseHalfCplt) refers to stm32f4xx_hal_tim.o(i.HAL_TIM_PWM_PulseFinishedHalfCpltCallback) for HAL_TIM_PWM_PulseFinishedHalfCpltCallback
    stm32f4xx_hal_tim.o(i.TIM_DMAError) refers to stm32f4xx_hal_tim.o(i.HAL_TIM_ErrorCallback) for HAL_TIM_ErrorCallback
    stm32f4xx_hal_tim.o(i.TIM_DMAPeriodElapsedCplt) refers to main.o(i.HAL_TIM_PeriodElapsedCallback) for HAL_TIM_PeriodElapsedCallback
    stm32f4xx_hal_tim.o(i.TIM_DMAPeriodElapsedHalfCplt) refers to stm32f4xx_hal_tim.o(i.HAL_TIM_PeriodElapsedHalfCpltCallback) for HAL_TIM_PeriodElapsedHalfCpltCallback
    stm32f4xx_hal_tim.o(i.TIM_DMATriggerCplt) refers to stm32f4xx_hal_tim.o(i.HAL_TIM_TriggerCallback) for HAL_TIM_TriggerCallback
    stm32f4xx_hal_tim.o(i.TIM_DMATriggerHalfCplt) refers to stm32f4xx_hal_tim.o(i.HAL_TIM_TriggerHalfCpltCallback) for HAL_TIM_TriggerHalfCpltCallback
    stm32f4xx_hal_tim.o(i.TIM_SlaveTimer_SetConfig) refers to stm32f4xx_hal_tim.o(i.TIM_ETR_SetConfig) for TIM_ETR_SetConfig
    stm32f4xx_hal_tim.o(i.TIM_SlaveTimer_SetConfig) refers to stm32f4xx_hal_tim.o(i.TIM_TI1_ConfigInputStage) for TIM_TI1_ConfigInputStage
    stm32f4xx_hal_tim.o(i.TIM_SlaveTimer_SetConfig) refers to stm32f4xx_hal_tim.o(i.TIM_TI2_ConfigInputStage) for TIM_TI2_ConfigInputStage
    stm32f4xx_hal_tim_ex.o(i.HAL_TIMEx_ConfigCommutEvent_DMA) refers to stm32f4xx_hal_tim_ex.o(i.TIMEx_DMACommutationCplt) for TIMEx_DMACommutationCplt
    stm32f4xx_hal_tim_ex.o(i.HAL_TIMEx_ConfigCommutEvent_DMA) refers to stm32f4xx_hal_tim_ex.o(i.TIMEx_DMACommutationHalfCplt) for TIMEx_DMACommutationHalfCplt
    stm32f4xx_hal_tim_ex.o(i.HAL_TIMEx_ConfigCommutEvent_DMA) refers to stm32f4xx_hal_tim.o(i.TIM_DMAError) for TIM_DMAError
    stm32f4xx_hal_tim_ex.o(i.HAL_TIMEx_HallSensor_DeInit) refers to stm32f4xx_hal_tim_ex.o(i.HAL_TIMEx_HallSensor_MspDeInit) for HAL_TIMEx_HallSensor_MspDeInit
    stm32f4xx_hal_tim_ex.o(i.HAL_TIMEx_HallSensor_Init) refers to stm32f4xx_hal_tim_ex.o(i.HAL_TIMEx_HallSensor_MspInit) for HAL_TIMEx_HallSensor_MspInit
    stm32f4xx_hal_tim_ex.o(i.HAL_TIMEx_HallSensor_Init) refers to stm32f4xx_hal_tim.o(i.TIM_Base_SetConfig) for TIM_Base_SetConfig
    stm32f4xx_hal_tim_ex.o(i.HAL_TIMEx_HallSensor_Init) refers to stm32f4xx_hal_tim.o(i.TIM_TI1_SetConfig) for TIM_TI1_SetConfig
    stm32f4xx_hal_tim_ex.o(i.HAL_TIMEx_HallSensor_Init) refers to stm32f4xx_hal_tim.o(i.TIM_OC2_SetConfig) for TIM_OC2_SetConfig
    stm32f4xx_hal_tim_ex.o(i.HAL_TIMEx_HallSensor_Start) refers to stm32f4xx_hal_tim.o(i.TIM_CCxChannelCmd) for TIM_CCxChannelCmd
    stm32f4xx_hal_tim_ex.o(i.HAL_TIMEx_HallSensor_Start_DMA) refers to stm32f4xx_hal_tim.o(i.TIM_CCxChannelCmd) for TIM_CCxChannelCmd
    stm32f4xx_hal_tim_ex.o(i.HAL_TIMEx_HallSensor_Start_DMA) refers to stm32f4xx_hal_dma.o(i.HAL_DMA_Start_IT) for HAL_DMA_Start_IT
    stm32f4xx_hal_tim_ex.o(i.HAL_TIMEx_HallSensor_Start_DMA) refers to stm32f4xx_hal_tim.o(i.TIM_DMACaptureCplt) for TIM_DMACaptureCplt
    stm32f4xx_hal_tim_ex.o(i.HAL_TIMEx_HallSensor_Start_DMA) refers to stm32f4xx_hal_tim.o(i.TIM_DMACaptureHalfCplt) for TIM_DMACaptureHalfCplt
    stm32f4xx_hal_tim_ex.o(i.HAL_TIMEx_HallSensor_Start_DMA) refers to stm32f4xx_hal_tim.o(i.TIM_DMAError) for TIM_DMAError
    stm32f4xx_hal_tim_ex.o(i.HAL_TIMEx_HallSensor_Start_IT) refers to stm32f4xx_hal_tim.o(i.TIM_CCxChannelCmd) for TIM_CCxChannelCmd
    stm32f4xx_hal_tim_ex.o(i.HAL_TIMEx_HallSensor_Stop) refers to stm32f4xx_hal_tim.o(i.TIM_CCxChannelCmd) for TIM_CCxChannelCmd
    stm32f4xx_hal_tim_ex.o(i.HAL_TIMEx_HallSensor_Stop_DMA) refers to stm32f4xx_hal_tim.o(i.TIM_CCxChannelCmd) for TIM_CCxChannelCmd
    stm32f4xx_hal_tim_ex.o(i.HAL_TIMEx_HallSensor_Stop_DMA) refers to stm32f4xx_hal_dma.o(i.HAL_DMA_Abort_IT) for HAL_DMA_Abort_IT
    stm32f4xx_hal_tim_ex.o(i.HAL_TIMEx_HallSensor_Stop_IT) refers to stm32f4xx_hal_tim.o(i.TIM_CCxChannelCmd) for TIM_CCxChannelCmd
    stm32f4xx_hal_tim_ex.o(i.HAL_TIMEx_OCN_Start) refers to stm32f4xx_hal_tim_ex.o(i.TIM_CCxNChannelCmd) for TIM_CCxNChannelCmd
    stm32f4xx_hal_tim_ex.o(i.HAL_TIMEx_OCN_Start_DMA) refers to stm32f4xx_hal_dma.o(i.HAL_DMA_Start_IT) for HAL_DMA_Start_IT
    stm32f4xx_hal_tim_ex.o(i.HAL_TIMEx_OCN_Start_DMA) refers to stm32f4xx_hal_tim_ex.o(i.TIM_CCxNChannelCmd) for TIM_CCxNChannelCmd
    stm32f4xx_hal_tim_ex.o(i.HAL_TIMEx_OCN_Start_DMA) refers to stm32f4xx_hal_tim_ex.o(i.TIM_DMADelayPulseNCplt) for TIM_DMADelayPulseNCplt
    stm32f4xx_hal_tim_ex.o(i.HAL_TIMEx_OCN_Start_DMA) refers to stm32f4xx_hal_tim.o(i.TIM_DMADelayPulseHalfCplt) for TIM_DMADelayPulseHalfCplt
    stm32f4xx_hal_tim_ex.o(i.HAL_TIMEx_OCN_Start_DMA) refers to stm32f4xx_hal_tim_ex.o(i.TIM_DMAErrorCCxN) for TIM_DMAErrorCCxN
    stm32f4xx_hal_tim_ex.o(i.HAL_TIMEx_OCN_Start_IT) refers to stm32f4xx_hal_tim_ex.o(i.TIM_CCxNChannelCmd) for TIM_CCxNChannelCmd
    stm32f4xx_hal_tim_ex.o(i.HAL_TIMEx_OCN_Stop) refers to stm32f4xx_hal_tim_ex.o(i.TIM_CCxNChannelCmd) for TIM_CCxNChannelCmd
    stm32f4xx_hal_tim_ex.o(i.HAL_TIMEx_OCN_Stop_DMA) refers to stm32f4xx_hal_dma.o(i.HAL_DMA_Abort_IT) for HAL_DMA_Abort_IT
    stm32f4xx_hal_tim_ex.o(i.HAL_TIMEx_OCN_Stop_DMA) refers to stm32f4xx_hal_tim_ex.o(i.TIM_CCxNChannelCmd) for TIM_CCxNChannelCmd
    stm32f4xx_hal_tim_ex.o(i.HAL_TIMEx_OCN_Stop_IT) refers to stm32f4xx_hal_tim_ex.o(i.TIM_CCxNChannelCmd) for TIM_CCxNChannelCmd
    stm32f4xx_hal_tim_ex.o(i.HAL_TIMEx_OnePulseN_Start) refers to stm32f4xx_hal_tim_ex.o(i.TIM_CCxNChannelCmd) for TIM_CCxNChannelCmd
    stm32f4xx_hal_tim_ex.o(i.HAL_TIMEx_OnePulseN_Start) refers to stm32f4xx_hal_tim.o(i.TIM_CCxChannelCmd) for TIM_CCxChannelCmd
    stm32f4xx_hal_tim_ex.o(i.HAL_TIMEx_OnePulseN_Start_IT) refers to stm32f4xx_hal_tim_ex.o(i.TIM_CCxNChannelCmd) for TIM_CCxNChannelCmd
    stm32f4xx_hal_tim_ex.o(i.HAL_TIMEx_OnePulseN_Start_IT) refers to stm32f4xx_hal_tim.o(i.TIM_CCxChannelCmd) for TIM_CCxChannelCmd
    stm32f4xx_hal_tim_ex.o(i.HAL_TIMEx_OnePulseN_Stop) refers to stm32f4xx_hal_tim_ex.o(i.TIM_CCxNChannelCmd) for TIM_CCxNChannelCmd
    stm32f4xx_hal_tim_ex.o(i.HAL_TIMEx_OnePulseN_Stop) refers to stm32f4xx_hal_tim.o(i.TIM_CCxChannelCmd) for TIM_CCxChannelCmd
    stm32f4xx_hal_tim_ex.o(i.HAL_TIMEx_OnePulseN_Stop_IT) refers to stm32f4xx_hal_tim_ex.o(i.TIM_CCxNChannelCmd) for TIM_CCxNChannelCmd
    stm32f4xx_hal_tim_ex.o(i.HAL_TIMEx_OnePulseN_Stop_IT) refers to stm32f4xx_hal_tim.o(i.TIM_CCxChannelCmd) for TIM_CCxChannelCmd
    stm32f4xx_hal_tim_ex.o(i.HAL_TIMEx_PWMN_Start) refers to stm32f4xx_hal_tim_ex.o(i.TIM_CCxNChannelCmd) for TIM_CCxNChannelCmd
    stm32f4xx_hal_tim_ex.o(i.HAL_TIMEx_PWMN_Start_DMA) refers to stm32f4xx_hal_dma.o(i.HAL_DMA_Start_IT) for HAL_DMA_Start_IT
    stm32f4xx_hal_tim_ex.o(i.HAL_TIMEx_PWMN_Start_DMA) refers to stm32f4xx_hal_tim_ex.o(i.TIM_CCxNChannelCmd) for TIM_CCxNChannelCmd
    stm32f4xx_hal_tim_ex.o(i.HAL_TIMEx_PWMN_Start_DMA) refers to stm32f4xx_hal_tim_ex.o(i.TIM_DMADelayPulseNCplt) for TIM_DMADelayPulseNCplt
    stm32f4xx_hal_tim_ex.o(i.HAL_TIMEx_PWMN_Start_DMA) refers to stm32f4xx_hal_tim.o(i.TIM_DMADelayPulseHalfCplt) for TIM_DMADelayPulseHalfCplt
    stm32f4xx_hal_tim_ex.o(i.HAL_TIMEx_PWMN_Start_DMA) refers to stm32f4xx_hal_tim_ex.o(i.TIM_DMAErrorCCxN) for TIM_DMAErrorCCxN
    stm32f4xx_hal_tim_ex.o(i.HAL_TIMEx_PWMN_Start_IT) refers to stm32f4xx_hal_tim_ex.o(i.TIM_CCxNChannelCmd) for TIM_CCxNChannelCmd
    stm32f4xx_hal_tim_ex.o(i.HAL_TIMEx_PWMN_Stop) refers to stm32f4xx_hal_tim_ex.o(i.TIM_CCxNChannelCmd) for TIM_CCxNChannelCmd
    stm32f4xx_hal_tim_ex.o(i.HAL_TIMEx_PWMN_Stop_DMA) refers to stm32f4xx_hal_dma.o(i.HAL_DMA_Abort_IT) for HAL_DMA_Abort_IT
    stm32f4xx_hal_tim_ex.o(i.HAL_TIMEx_PWMN_Stop_DMA) refers to stm32f4xx_hal_tim_ex.o(i.TIM_CCxNChannelCmd) for TIM_CCxNChannelCmd
    stm32f4xx_hal_tim_ex.o(i.HAL_TIMEx_PWMN_Stop_IT) refers to stm32f4xx_hal_tim_ex.o(i.TIM_CCxNChannelCmd) for TIM_CCxNChannelCmd
    stm32f4xx_hal_tim_ex.o(i.TIMEx_DMACommutationCplt) refers to stm32f4xx_hal_tim_ex.o(i.HAL_TIMEx_CommutCallback) for HAL_TIMEx_CommutCallback
    stm32f4xx_hal_tim_ex.o(i.TIMEx_DMACommutationHalfCplt) refers to stm32f4xx_hal_tim_ex.o(i.HAL_TIMEx_CommutHalfCpltCallback) for HAL_TIMEx_CommutHalfCpltCallback
    stm32f4xx_hal_tim_ex.o(i.TIM_DMADelayPulseNCplt) refers to stm32f4xx_hal_tim.o(i.HAL_TIM_PWM_PulseFinishedCallback) for HAL_TIM_PWM_PulseFinishedCallback
    stm32f4xx_hal_tim_ex.o(i.TIM_DMAErrorCCxN) refers to stm32f4xx_hal_tim.o(i.HAL_TIM_ErrorCallback) for HAL_TIM_ErrorCallback
    stm32f4xx_hal_uart.o(i.HAL_HalfDuplex_Init) refers to usart.o(i.HAL_UART_MspInit) for HAL_UART_MspInit
    stm32f4xx_hal_uart.o(i.HAL_HalfDuplex_Init) refers to stm32f4xx_hal_uart.o(i.UART_SetConfig) for UART_SetConfig
    stm32f4xx_hal_uart.o(i.HAL_LIN_Init) refers to usart.o(i.HAL_UART_MspInit) for HAL_UART_MspInit
    stm32f4xx_hal_uart.o(i.HAL_LIN_Init) refers to stm32f4xx_hal_uart.o(i.UART_SetConfig) for UART_SetConfig
    stm32f4xx_hal_uart.o(i.HAL_MultiProcessor_Init) refers to usart.o(i.HAL_UART_MspInit) for HAL_UART_MspInit
    stm32f4xx_hal_uart.o(i.HAL_MultiProcessor_Init) refers to stm32f4xx_hal_uart.o(i.UART_SetConfig) for UART_SetConfig
    stm32f4xx_hal_uart.o(i.HAL_UARTEx_ReceiveToIdle) refers to stm32f4xx_hal.o(i.HAL_GetTick) for HAL_GetTick
    stm32f4xx_hal_uart.o(i.HAL_UARTEx_ReceiveToIdle_DMA) refers to stm32f4xx_hal_uart.o(i.UART_Start_Receive_DMA) for UART_Start_Receive_DMA
    stm32f4xx_hal_uart.o(i.HAL_UARTEx_ReceiveToIdle_IT) refers to stm32f4xx_hal_uart.o(i.UART_Start_Receive_IT) for UART_Start_Receive_IT
    stm32f4xx_hal_uart.o(i.HAL_UART_Abort) refers to stm32f4xx_hal_dma.o(i.HAL_DMA_Abort) for HAL_DMA_Abort
    stm32f4xx_hal_uart.o(i.HAL_UART_Abort) refers to stm32f4xx_hal_dma.o(i.HAL_DMA_GetError) for HAL_DMA_GetError
    stm32f4xx_hal_uart.o(i.HAL_UART_AbortReceive) refers to stm32f4xx_hal_dma.o(i.HAL_DMA_Abort) for HAL_DMA_Abort
    stm32f4xx_hal_uart.o(i.HAL_UART_AbortReceive) refers to stm32f4xx_hal_dma.o(i.HAL_DMA_GetError) for HAL_DMA_GetError
    stm32f4xx_hal_uart.o(i.HAL_UART_AbortReceive_IT) refers to stm32f4xx_hal_dma.o(i.HAL_DMA_Abort_IT) for HAL_DMA_Abort_IT
    stm32f4xx_hal_uart.o(i.HAL_UART_AbortReceive_IT) refers to stm32f4xx_hal_uart.o(i.HAL_UART_AbortReceiveCpltCallback) for HAL_UART_AbortReceiveCpltCallback
    stm32f4xx_hal_uart.o(i.HAL_UART_AbortReceive_IT) refers to stm32f4xx_hal_uart.o(i.UART_DMARxOnlyAbortCallback) for UART_DMARxOnlyAbortCallback
    stm32f4xx_hal_uart.o(i.HAL_UART_AbortTransmit) refers to stm32f4xx_hal_dma.o(i.HAL_DMA_Abort) for HAL_DMA_Abort
    stm32f4xx_hal_uart.o(i.HAL_UART_AbortTransmit) refers to stm32f4xx_hal_dma.o(i.HAL_DMA_GetError) for HAL_DMA_GetError
    stm32f4xx_hal_uart.o(i.HAL_UART_AbortTransmit_IT) refers to stm32f4xx_hal_dma.o(i.HAL_DMA_Abort_IT) for HAL_DMA_Abort_IT
    stm32f4xx_hal_uart.o(i.HAL_UART_AbortTransmit_IT) refers to stm32f4xx_hal_uart.o(i.HAL_UART_AbortTransmitCpltCallback) for HAL_UART_AbortTransmitCpltCallback
    stm32f4xx_hal_uart.o(i.HAL_UART_AbortTransmit_IT) refers to stm32f4xx_hal_uart.o(i.UART_DMATxOnlyAbortCallback) for UART_DMATxOnlyAbortCallback
    stm32f4xx_hal_uart.o(i.HAL_UART_Abort_IT) refers to stm32f4xx_hal_dma.o(i.HAL_DMA_Abort_IT) for HAL_DMA_Abort_IT
    stm32f4xx_hal_uart.o(i.HAL_UART_Abort_IT) refers to stm32f4xx_hal_uart.o(i.HAL_UART_AbortCpltCallback) for HAL_UART_AbortCpltCallback
    stm32f4xx_hal_uart.o(i.HAL_UART_Abort_IT) refers to stm32f4xx_hal_uart.o(i.UART_DMATxAbortCallback) for UART_DMATxAbortCallback
    stm32f4xx_hal_uart.o(i.HAL_UART_Abort_IT) refers to stm32f4xx_hal_uart.o(i.UART_DMARxAbortCallback) for UART_DMARxAbortCallback
    stm32f4xx_hal_uart.o(i.HAL_UART_DMAStop) refers to stm32f4xx_hal_dma.o(i.HAL_DMA_Abort) for HAL_DMA_Abort
    stm32f4xx_hal_uart.o(i.HAL_UART_DMAStop) refers to stm32f4xx_hal_uart.o(i.UART_EndTxTransfer) for UART_EndTxTransfer
    stm32f4xx_hal_uart.o(i.HAL_UART_DMAStop) refers to stm32f4xx_hal_uart.o(i.UART_EndRxTransfer) for UART_EndRxTransfer
    stm32f4xx_hal_uart.o(i.HAL_UART_DeInit) refers to usart.o(i.HAL_UART_MspDeInit) for HAL_UART_MspDeInit
    stm32f4xx_hal_uart.o(i.HAL_UART_IRQHandler) refers to stm32f4xx_hal_uart.o(i.UART_Receive_IT) for UART_Receive_IT
    stm32f4xx_hal_uart.o(i.HAL_UART_IRQHandler) refers to stm32f4xx_hal_uart.o(i.UART_EndRxTransfer) for UART_EndRxTransfer
    stm32f4xx_hal_uart.o(i.HAL_UART_IRQHandler) refers to stm32f4xx_hal_dma.o(i.HAL_DMA_Abort_IT) for HAL_DMA_Abort_IT
    stm32f4xx_hal_uart.o(i.HAL_UART_IRQHandler) refers to stm32f4xx_hal_uart.o(i.HAL_UART_ErrorCallback) for HAL_UART_ErrorCallback
    stm32f4xx_hal_uart.o(i.HAL_UART_IRQHandler) refers to stm32f4xx_hal_dma.o(i.HAL_DMA_Abort) for HAL_DMA_Abort
    stm32f4xx_hal_uart.o(i.HAL_UART_IRQHandler) refers to stm32f4xx_hal_uart.o(i.HAL_UARTEx_RxEventCallback) for HAL_UARTEx_RxEventCallback
    stm32f4xx_hal_uart.o(i.HAL_UART_IRQHandler) refers to stm32f4xx_hal_uart.o(i.UART_Transmit_IT) for UART_Transmit_IT
    stm32f4xx_hal_uart.o(i.HAL_UART_IRQHandler) refers to stm32f4xx_hal_uart.o(i.UART_EndTransmit_IT) for UART_EndTransmit_IT
    stm32f4xx_hal_uart.o(i.HAL_UART_IRQHandler) refers to stm32f4xx_hal_uart.o(i.UART_DMAAbortOnError) for UART_DMAAbortOnError
    stm32f4xx_hal_uart.o(i.HAL_UART_Init) refers to usart.o(i.HAL_UART_MspInit) for HAL_UART_MspInit
    stm32f4xx_hal_uart.o(i.HAL_UART_Init) refers to stm32f4xx_hal_uart.o(i.UART_SetConfig) for UART_SetConfig
    stm32f4xx_hal_uart.o(i.HAL_UART_Receive) refers to stm32f4xx_hal.o(i.HAL_GetTick) for HAL_GetTick
    stm32f4xx_hal_uart.o(i.HAL_UART_Receive) refers to stm32f4xx_hal_uart.o(i.UART_WaitOnFlagUntilTimeout) for UART_WaitOnFlagUntilTimeout
    stm32f4xx_hal_uart.o(i.HAL_UART_Receive_DMA) refers to stm32f4xx_hal_uart.o(i.UART_Start_Receive_DMA) for UART_Start_Receive_DMA
    stm32f4xx_hal_uart.o(i.HAL_UART_Receive_IT) refers to stm32f4xx_hal_uart.o(i.UART_Start_Receive_IT) for UART_Start_Receive_IT
    stm32f4xx_hal_uart.o(i.HAL_UART_Transmit) refers to stm32f4xx_hal.o(i.HAL_GetTick) for HAL_GetTick
    stm32f4xx_hal_uart.o(i.HAL_UART_Transmit) refers to stm32f4xx_hal_uart.o(i.UART_WaitOnFlagUntilTimeout) for UART_WaitOnFlagUntilTimeout
    stm32f4xx_hal_uart.o(i.HAL_UART_Transmit_DMA) refers to stm32f4xx_hal_dma.o(i.HAL_DMA_Start_IT) for HAL_DMA_Start_IT
    stm32f4xx_hal_uart.o(i.HAL_UART_Transmit_DMA) refers to stm32f4xx_hal_uart.o(i.UART_DMATransmitCplt) for UART_DMATransmitCplt
    stm32f4xx_hal_uart.o(i.HAL_UART_Transmit_DMA) refers to stm32f4xx_hal_uart.o(i.UART_DMATxHalfCplt) for UART_DMATxHalfCplt
    stm32f4xx_hal_uart.o(i.HAL_UART_Transmit_DMA) refers to stm32f4xx_hal_uart.o(i.UART_DMAError) for UART_DMAError
    stm32f4xx_hal_uart.o(i.UART_DMAAbortOnError) refers to stm32f4xx_hal_uart.o(i.HAL_UART_ErrorCallback) for HAL_UART_ErrorCallback
    stm32f4xx_hal_uart.o(i.UART_DMAError) refers to stm32f4xx_hal_uart.o(i.UART_EndTxTransfer) for UART_EndTxTransfer
    stm32f4xx_hal_uart.o(i.UART_DMAError) refers to stm32f4xx_hal_uart.o(i.UART_EndRxTransfer) for UART_EndRxTransfer
    stm32f4xx_hal_uart.o(i.UART_DMAError) refers to stm32f4xx_hal_uart.o(i.HAL_UART_ErrorCallback) for HAL_UART_ErrorCallback
    stm32f4xx_hal_uart.o(i.UART_DMAReceiveCplt) refers to stm32f4xx_hal_uart.o(i.HAL_UARTEx_RxEventCallback) for HAL_UARTEx_RxEventCallback
    stm32f4xx_hal_uart.o(i.UART_DMAReceiveCplt) refers to stm32f4xx_hal_uart.o(i.HAL_UART_RxCpltCallback) for HAL_UART_RxCpltCallback
    stm32f4xx_hal_uart.o(i.UART_DMARxAbortCallback) refers to stm32f4xx_hal_uart.o(i.HAL_UART_AbortCpltCallback) for HAL_UART_AbortCpltCallback
    stm32f4xx_hal_uart.o(i.UART_DMARxHalfCplt) refers to stm32f4xx_hal_uart.o(i.HAL_UARTEx_RxEventCallback) for HAL_UARTEx_RxEventCallback
    stm32f4xx_hal_uart.o(i.UART_DMARxHalfCplt) refers to stm32f4xx_hal_uart.o(i.HAL_UART_RxHalfCpltCallback) for HAL_UART_RxHalfCpltCallback
    stm32f4xx_hal_uart.o(i.UART_DMARxOnlyAbortCallback) refers to stm32f4xx_hal_uart.o(i.HAL_UART_AbortReceiveCpltCallback) for HAL_UART_AbortReceiveCpltCallback
    stm32f4xx_hal_uart.o(i.UART_DMATransmitCplt) refers to stm32f4xx_hal_uart.o(i.HAL_UART_TxCpltCallback) for HAL_UART_TxCpltCallback
    stm32f4xx_hal_uart.o(i.UART_DMATxAbortCallback) refers to stm32f4xx_hal_uart.o(i.HAL_UART_AbortCpltCallback) for HAL_UART_AbortCpltCallback
    stm32f4xx_hal_uart.o(i.UART_DMATxHalfCplt) refers to stm32f4xx_hal_uart.o(i.HAL_UART_TxHalfCpltCallback) for HAL_UART_TxHalfCpltCallback
    stm32f4xx_hal_uart.o(i.UART_DMATxOnlyAbortCallback) refers to stm32f4xx_hal_uart.o(i.HAL_UART_AbortTransmitCpltCallback) for HAL_UART_AbortTransmitCpltCallback
    stm32f4xx_hal_uart.o(i.UART_EndTransmit_IT) refers to stm32f4xx_hal_uart.o(i.HAL_UART_TxCpltCallback) for HAL_UART_TxCpltCallback
    stm32f4xx_hal_uart.o(i.UART_Receive_IT) refers to stm32f4xx_hal_uart.o(i.HAL_UARTEx_RxEventCallback) for HAL_UARTEx_RxEventCallback
    stm32f4xx_hal_uart.o(i.UART_Receive_IT) refers to stm32f4xx_hal_uart.o(i.HAL_UART_RxCpltCallback) for HAL_UART_RxCpltCallback
    stm32f4xx_hal_uart.o(i.UART_SetConfig) refers to stm32f4xx_hal_rcc.o(i.HAL_RCC_GetPCLK2Freq) for HAL_RCC_GetPCLK2Freq
    stm32f4xx_hal_uart.o(i.UART_SetConfig) refers to stm32f4xx_hal_rcc.o(i.HAL_RCC_GetPCLK1Freq) for HAL_RCC_GetPCLK1Freq
    stm32f4xx_hal_uart.o(i.UART_SetConfig) refers to uldiv.o(.text) for __aeabi_uldivmod
    stm32f4xx_hal_uart.o(i.UART_Start_Receive_DMA) refers to stm32f4xx_hal_dma.o(i.HAL_DMA_Start_IT) for HAL_DMA_Start_IT
    stm32f4xx_hal_uart.o(i.UART_Start_Receive_DMA) refers to stm32f4xx_hal_uart.o(i.UART_DMAReceiveCplt) for UART_DMAReceiveCplt
    stm32f4xx_hal_uart.o(i.UART_Start_Receive_DMA) refers to stm32f4xx_hal_uart.o(i.UART_DMARxHalfCplt) for UART_DMARxHalfCplt
    stm32f4xx_hal_uart.o(i.UART_Start_Receive_DMA) refers to stm32f4xx_hal_uart.o(i.UART_DMAError) for UART_DMAError
    stm32f4xx_hal_uart.o(i.UART_WaitOnFlagUntilTimeout) refers to stm32f4xx_hal.o(i.HAL_GetTick) for HAL_GetTick
    system_stm32f4xx.o(i.SystemCoreClockUpdate) refers to system_stm32f4xx.o(.data) for SystemCoreClock
    system_stm32f4xx.o(i.SystemCoreClockUpdate) refers to system_stm32f4xx.o(.constdata) for AHBPrescTable
    co_emergency.o(i.CO_EM_init) refers to memseta.o(.text) for __aeabi_memclr4
    co_emergency.o(i.CO_EM_init) refers to co_odinterface.o(i.OD_getPtr) for OD_getPtr
    co_emergency.o(i.CO_EM_init) refers to co_emergency.o(i.OD_getIndex) for OD_getIndex
    co_emergency.o(i.CO_EM_init) refers to co_odinterface.o(i.OD_get_value) for OD_get_value
    co_emergency.o(i.CO_EM_init) refers to co_emergency.o(i.OD_extension_init) for OD_extension_init
    co_emergency.o(i.CO_EM_init) refers to co_driver_stm32.o(i.CO_CANtxBufferInit) for CO_CANtxBufferInit
    co_emergency.o(i.CO_EM_init) refers to co_emergency.o(i.OD_read_1014_default) for OD_read_1014_default
    co_emergency.o(i.CO_EM_init) refers to co_odinterface.o(i.OD_writeOriginal) for OD_writeOriginal
    co_emergency.o(i.CO_EM_init) refers to co_emergency.o(i.OD_read_1003) for OD_read_1003
    co_emergency.o(i.CO_EM_init) refers to co_emergency.o(i.OD_write_1003) for OD_write_1003
    co_emergency.o(i.CO_EM_process) refers to co_emergency.o(i.CO_error) for CO_error
    co_emergency.o(i.CO_EM_process) refers to co_driver_stm32.o(i.CO_CANsend) for CO_CANsend
    co_emergency.o(i.CO_setUint32) refers to memmovea.o(.text) for __aeabi_memmove
    co_emergency.o(i.OD_read_1003) refers to memmovea.o(.text) for __aeabi_memmove
    co_emergency.o(i.OD_read_1003) refers to co_emergency.o(i.CO_setUint32) for CO_setUint32
    co_emergency.o(i.OD_read_1014_default) refers to co_emergency.o(i.CO_setUint32) for CO_setUint32
    co_emergency.o(i.OD_write_1003) refers to memmovea.o(.text) for __aeabi_memmove
    co_hbconsumer.o(i.CO_HBconsumer_init) refers to memseta.o(.text) for __aeabi_memclr4
    co_hbconsumer.o(i.CO_HBconsumer_init) refers to co_odinterface.o(i.OD_get_value) for OD_get_value
    co_hbconsumer.o(i.CO_HBconsumer_init) refers to co_hbconsumer.o(i.OD_getIndex) for OD_getIndex
    co_hbconsumer.o(i.CO_HBconsumer_init) refers to co_hbconsumer.o(i.CO_HBconsumer_initEntry) for CO_HBconsumer_initEntry
    co_hbconsumer.o(i.CO_HBconsumer_init) refers to co_odinterface.o(i.OD_readOriginal) for OD_readOriginal
    co_hbconsumer.o(i.CO_HBconsumer_init) refers to co_hbconsumer.o(i.OD_write_1016) for OD_write_1016
    co_hbconsumer.o(i.CO_HBconsumer_initEntry) refers to co_driver_stm32.o(i.CO_CANrxBufferInit) for CO_CANrxBufferInit
    co_hbconsumer.o(i.CO_HBconsumer_initEntry) refers to co_hbconsumer.o(i.CO_HBcons_receive) for CO_HBcons_receive
    co_hbconsumer.o(i.CO_HBconsumer_process) refers to co_emergency.o(i.CO_error) for CO_error
    co_hbconsumer.o(i.OD_write_1016) refers to memmovea.o(.text) for __aeabi_memmove
    co_hbconsumer.o(i.OD_write_1016) refers to co_hbconsumer.o(i.CO_HBconsumer_initEntry) for CO_HBconsumer_initEntry
    co_hbconsumer.o(i.OD_write_1016) refers to co_odinterface.o(i.OD_writeOriginal) for OD_writeOriginal
    co_nmt_heartbeat.o(i.CO_NMT_init) refers to memseta.o(.text) for __aeabi_memclr4
    co_nmt_heartbeat.o(i.CO_NMT_init) refers to co_odinterface.o(i.OD_get_value) for OD_get_value
    co_nmt_heartbeat.o(i.CO_NMT_init) refers to co_nmt_heartbeat.o(i.OD_getIndex) for OD_getIndex
    co_nmt_heartbeat.o(i.CO_NMT_init) refers to co_driver_stm32.o(i.CO_CANrxBufferInit) for CO_CANrxBufferInit
    co_nmt_heartbeat.o(i.CO_NMT_init) refers to co_driver_stm32.o(i.CO_CANtxBufferInit) for CO_CANtxBufferInit
    co_nmt_heartbeat.o(i.CO_NMT_init) refers to co_odinterface.o(i.OD_readOriginal) for OD_readOriginal
    co_nmt_heartbeat.o(i.CO_NMT_init) refers to co_nmt_heartbeat.o(i.OD_write_1017) for OD_write_1017
    co_nmt_heartbeat.o(i.CO_NMT_init) refers to co_nmt_heartbeat.o(i.CO_NMT_receive) for CO_NMT_receive
    co_nmt_heartbeat.o(i.CO_NMT_process) refers to co_driver_stm32.o(i.CO_CANsend) for CO_CANsend
    co_nmt_heartbeat.o(i.CO_NMT_process) refers to co_nmt_heartbeat.o(i.CO_isError) for CO_isError
    co_nmt_heartbeat.o(i.CO_NMT_sendCommand) refers to co_driver_stm32.o(i.CO_CANsend) for CO_CANsend
    co_nmt_heartbeat.o(i.OD_write_1017) refers to memmovea.o(.text) for __aeabi_memmove
    co_nmt_heartbeat.o(i.OD_write_1017) refers to co_odinterface.o(i.OD_writeOriginal) for OD_writeOriginal
    co_odinterface.o(i.OD_getPtr) refers to co_odinterface.o(i.OD_getSub) for OD_getSub
    co_odinterface.o(i.OD_getSDOabCode) refers to co_odinterface.o(.constdata) for abortCodes
    co_odinterface.o(i.OD_getSub) refers to co_odinterface.o(i.OD_readOriginal) for OD_readOriginal
    co_odinterface.o(i.OD_getSub) refers to co_odinterface.o(i.OD_writeOriginal) for OD_writeOriginal
    co_odinterface.o(i.OD_getSub) refers to co_odinterface.o(i.OD_readDisabled) for OD_readDisabled
    co_odinterface.o(i.OD_getSub) refers to co_odinterface.o(i.OD_writeDisabled) for OD_writeDisabled
    co_odinterface.o(i.OD_get_value) refers to co_odinterface.o(i.OD_getSub) for OD_getSub
    co_odinterface.o(i.OD_readOriginal) refers to memmovea.o(.text) for __aeabi_memcpy
    co_odinterface.o(i.OD_set_value) refers to co_odinterface.o(i.OD_getSub) for OD_getSub
    co_odinterface.o(i.OD_writeOriginal) refers to memmovea.o(.text) for __aeabi_memcpy
    co_pdo.o(i.CO_RPDO_init) refers to memseta.o(.text) for __aeabi_memclr4
    co_pdo.o(i.CO_RPDO_init) refers to co_pdo.o(i.PDO_initMapping) for PDO_initMapping
    co_pdo.o(i.CO_RPDO_init) refers to co_pdo.o(i.OD_get_u32) for OD_get_u32
    co_pdo.o(i.CO_RPDO_init) refers to co_pdo.o(i.OD_getIndex) for OD_getIndex
    co_pdo.o(i.CO_RPDO_init) refers to co_emergency.o(i.CO_error) for CO_error
    co_pdo.o(i.CO_RPDO_init) refers to co_driver_stm32.o(i.CO_CANrxBufferInit) for CO_CANrxBufferInit
    co_pdo.o(i.CO_RPDO_init) refers to co_pdo.o(i.OD_get_u8) for OD_get_u8
    co_pdo.o(i.CO_RPDO_init) refers to co_pdo.o(i.OD_get_u16) for OD_get_u16
    co_pdo.o(i.CO_RPDO_init) refers to co_pdo.o(i.OD_extension_init) for OD_extension_init
    co_pdo.o(i.CO_RPDO_init) refers to co_pdo.o(i.CO_PDO_receive) for CO_PDO_receive
    co_pdo.o(i.CO_RPDO_init) refers to co_pdo.o(i.OD_read_PDO_commParam) for OD_read_PDO_commParam
    co_pdo.o(i.CO_RPDO_init) refers to co_pdo.o(i.OD_write_14xx) for OD_write_14xx
    co_pdo.o(i.CO_RPDO_init) refers to co_odinterface.o(i.OD_readOriginal) for OD_readOriginal
    co_pdo.o(i.CO_RPDO_init) refers to co_pdo.o(i.OD_write_PDO_mapping) for OD_write_PDO_mapping
    co_pdo.o(i.CO_RPDO_process) refers to co_emergency.o(i.CO_error) for CO_error
    co_pdo.o(i.CO_RPDO_process) refers to memmovea.o(.text) for __aeabi_memcpy
    co_pdo.o(i.CO_TPDO_init) refers to memseta.o(.text) for __aeabi_memclr4
    co_pdo.o(i.CO_TPDO_init) refers to co_pdo.o(i.PDO_initMapping) for PDO_initMapping
    co_pdo.o(i.CO_TPDO_init) refers to co_pdo.o(i.OD_get_u8) for OD_get_u8
    co_pdo.o(i.CO_TPDO_init) refers to co_pdo.o(i.OD_getIndex) for OD_getIndex
    co_pdo.o(i.CO_TPDO_init) refers to co_pdo.o(i.OD_get_u32) for OD_get_u32
    co_pdo.o(i.CO_TPDO_init) refers to co_emergency.o(i.CO_error) for CO_error
    co_pdo.o(i.CO_TPDO_init) refers to co_driver_stm32.o(i.CO_CANtxBufferInit) for CO_CANtxBufferInit
    co_pdo.o(i.CO_TPDO_init) refers to co_pdo.o(i.OD_get_u16) for OD_get_u16
    co_pdo.o(i.CO_TPDO_init) refers to co_pdo.o(i.OD_extension_init) for OD_extension_init
    co_pdo.o(i.CO_TPDO_init) refers to co_pdo.o(i.OD_read_PDO_commParam) for OD_read_PDO_commParam
    co_pdo.o(i.CO_TPDO_init) refers to co_pdo.o(i.OD_write_18xx) for OD_write_18xx
    co_pdo.o(i.CO_TPDO_init) refers to co_odinterface.o(i.OD_readOriginal) for OD_readOriginal
    co_pdo.o(i.CO_TPDO_init) refers to co_pdo.o(i.OD_write_PDO_mapping) for OD_write_PDO_mapping
    co_pdo.o(i.CO_TPDO_process) refers to co_pdo.o(i.CO_TPDOsend) for CO_TPDOsend
    co_pdo.o(i.CO_TPDOsend) refers to memmovea.o(.text) for __aeabi_memcpy
    co_pdo.o(i.CO_TPDOsend) refers to co_driver_stm32.o(i.CO_CANsend) for CO_CANsend
    co_pdo.o(i.CO_getUint16) refers to memmovea.o(.text) for __aeabi_memmove
    co_pdo.o(i.CO_getUint32) refers to memmovea.o(.text) for __aeabi_memmove
    co_pdo.o(i.CO_getUint8) refers to memmovea.o(.text) for __aeabi_memmove
    co_pdo.o(i.CO_setUint32) refers to memmovea.o(.text) for __aeabi_memmove
    co_pdo.o(i.OD_get_u16) refers to co_odinterface.o(i.OD_get_value) for OD_get_value
    co_pdo.o(i.OD_get_u32) refers to co_odinterface.o(i.OD_get_value) for OD_get_value
    co_pdo.o(i.OD_get_u8) refers to co_odinterface.o(i.OD_get_value) for OD_get_value
    co_pdo.o(i.OD_read_PDO_commParam) refers to co_odinterface.o(i.OD_readOriginal) for OD_readOriginal
    co_pdo.o(i.OD_read_PDO_commParam) refers to co_pdo.o(i.CO_getUint32) for CO_getUint32
    co_pdo.o(i.OD_read_PDO_commParam) refers to co_pdo.o(i.CO_setUint32) for CO_setUint32
    co_pdo.o(i.OD_read_dummy) refers to memseta.o(.text) for __aeabi_memclr
    co_pdo.o(i.OD_write_14xx) refers to memmovea.o(.text) for __aeabi_memcpy
    co_pdo.o(i.OD_write_14xx) refers to co_pdo.o(i.CO_getUint32) for CO_getUint32
    co_pdo.o(i.OD_write_14xx) refers to co_pdo.o(i.CO_setUint32) for CO_setUint32
    co_pdo.o(i.OD_write_14xx) refers to co_driver_stm32.o(i.CO_CANrxBufferInit) for CO_CANrxBufferInit
    co_pdo.o(i.OD_write_14xx) refers to co_pdo.o(i.CO_getUint8) for CO_getUint8
    co_pdo.o(i.OD_write_14xx) refers to co_pdo.o(i.CO_getUint16) for CO_getUint16
    co_pdo.o(i.OD_write_14xx) refers to co_odinterface.o(i.OD_writeOriginal) for OD_writeOriginal
    co_pdo.o(i.OD_write_14xx) refers to co_pdo.o(i.CO_PDO_receive) for CO_PDO_receive
    co_pdo.o(i.OD_write_18xx) refers to memmovea.o(.text) for __aeabi_memcpy
    co_pdo.o(i.OD_write_18xx) refers to co_pdo.o(i.CO_getUint32) for CO_getUint32
    co_pdo.o(i.OD_write_18xx) refers to co_pdo.o(i.CO_setUint32) for CO_setUint32
    co_pdo.o(i.OD_write_18xx) refers to co_driver_stm32.o(i.CO_CANtxBufferInit) for CO_CANtxBufferInit
    co_pdo.o(i.OD_write_18xx) refers to co_pdo.o(i.CO_getUint8) for CO_getUint8
    co_pdo.o(i.OD_write_18xx) refers to co_pdo.o(i.CO_getUint16) for CO_getUint16
    co_pdo.o(i.OD_write_18xx) refers to co_odinterface.o(i.OD_writeOriginal) for OD_writeOriginal
    co_pdo.o(i.OD_write_PDO_mapping) refers to co_pdo.o(i.CO_getUint8) for CO_getUint8
    co_pdo.o(i.OD_write_PDO_mapping) refers to co_pdo.o(i.CO_getUint32) for CO_getUint32
    co_pdo.o(i.OD_write_PDO_mapping) refers to co_pdo.o(i.PDOconfigMap) for PDOconfigMap
    co_pdo.o(i.OD_write_PDO_mapping) refers to co_odinterface.o(i.OD_writeOriginal) for OD_writeOriginal
    co_pdo.o(i.PDO_initMapping) refers to co_pdo.o(i.OD_get_u8) for OD_get_u8
    co_pdo.o(i.PDO_initMapping) refers to co_pdo.o(i.OD_getIndex) for OD_getIndex
    co_pdo.o(i.PDO_initMapping) refers to co_pdo.o(i.OD_get_u32) for OD_get_u32
    co_pdo.o(i.PDO_initMapping) refers to co_pdo.o(i.PDOconfigMap) for PDOconfigMap
    co_pdo.o(i.PDOconfigMap) refers to memseta.o(.text) for __aeabi_memclr4
    co_pdo.o(i.PDOconfigMap) refers to co_odinterface.o(i.OD_find) for OD_find
    co_pdo.o(i.PDOconfigMap) refers to co_odinterface.o(i.OD_getSub) for OD_getSub
    co_pdo.o(i.PDOconfigMap) refers to memmovea.o(.text) for __aeabi_memcpy4
    co_pdo.o(i.PDOconfigMap) refers to co_pdo.o(i.OD_read_dummy) for OD_read_dummy
    co_pdo.o(i.PDOconfigMap) refers to co_pdo.o(i.OD_write_dummy) for OD_write_dummy
    co_sdoclient.o(i.CO_SDOclientDownload) refers to co_fifo.o(i.CO_fifo_read) for CO_fifo_read
    co_sdoclient.o(i.CO_SDOclientDownload) refers to co_driver_stm32.o(i.CO_CANsend) for CO_CANsend
    co_sdoclient.o(i.CO_SDOclientDownloadBufWrite) refers to co_fifo.o(i.CO_fifo_write) for CO_fifo_write
    co_sdoclient.o(i.CO_SDOclientDownloadInitiate) refers to co_sdoclient.o(i.CO_fifo_reset) for CO_fifo_reset
    co_sdoclient.o(i.CO_SDOclientUpload) refers to co_fifo.o(i.CO_fifo_write) for CO_fifo_write
    co_sdoclient.o(i.CO_SDOclientUpload) refers to co_driver_stm32.o(i.CO_CANsend) for CO_CANsend
    co_sdoclient.o(i.CO_SDOclientUploadBufRead) refers to co_fifo.o(i.CO_fifo_read) for CO_fifo_read
    co_sdoclient.o(i.CO_SDOclientUploadInitiate) refers to co_sdoclient.o(i.CO_fifo_reset) for CO_fifo_reset
    co_sdoclient.o(i.CO_SDOclient_init) refers to co_sdoclient.o(i.OD_getIndex) for OD_getIndex
    co_sdoclient.o(i.CO_SDOclient_init) refers to co_fifo.o(i.CO_fifo_init) for CO_fifo_init
    co_sdoclient.o(i.CO_SDOclient_init) refers to co_sdoclient.o(i.OD_get_u8) for OD_get_u8
    co_sdoclient.o(i.CO_SDOclient_init) refers to co_sdoclient.o(i.OD_get_u32) for OD_get_u32
    co_sdoclient.o(i.CO_SDOclient_init) refers to co_sdoclient.o(i.CO_SDOclient_setup) for CO_SDOclient_setup
    co_sdoclient.o(i.CO_SDOclient_setup) refers to co_driver_stm32.o(i.CO_CANrxBufferInit) for CO_CANrxBufferInit
    co_sdoclient.o(i.CO_SDOclient_setup) refers to co_driver_stm32.o(i.CO_CANtxBufferInit) for CO_CANtxBufferInit
    co_sdoclient.o(i.CO_SDOclient_setup) refers to co_sdoclient.o(i.CO_SDOclient_receive) for CO_SDOclient_receive
    co_sdoclient.o(i.OD_get_u32) refers to co_odinterface.o(i.OD_get_value) for OD_get_value
    co_sdoclient.o(i.OD_get_u8) refers to co_odinterface.o(i.OD_get_value) for OD_get_value
    co_sdoserver.o(i.CO_SDO_receive) refers to memmovea.o(.text) for __aeabi_memcpy
    co_sdoserver.o(i.CO_SDOserver_init) refers to co_sdoserver.o(i.OD_set_u32) for OD_set_u32
    co_sdoserver.o(i.CO_SDOserver_init) refers to co_odinterface.o(i.OD_get_value) for OD_get_value
    co_sdoserver.o(i.CO_SDOserver_init) refers to co_sdoserver.o(i.OD_get_u32) for OD_get_u32
    co_sdoserver.o(i.CO_SDOserver_init) refers to co_sdoserver.o(i.CO_SDOserver_init_canRxTx) for CO_SDOserver_init_canRxTx
    co_sdoserver.o(i.CO_SDOserver_init) refers to co_odinterface.o(i.OD_readOriginal) for OD_readOriginal
    co_sdoserver.o(i.CO_SDOserver_init) refers to co_sdoserver.o(i.OD_write_1201_additional) for OD_write_1201_additional
    co_sdoserver.o(i.CO_SDOserver_init_canRxTx) refers to co_driver_stm32.o(i.CO_CANrxBufferInit) for CO_CANrxBufferInit
    co_sdoserver.o(i.CO_SDOserver_init_canRxTx) refers to co_driver_stm32.o(i.CO_CANtxBufferInit) for CO_CANtxBufferInit
    co_sdoserver.o(i.CO_SDOserver_init_canRxTx) refers to co_sdoserver.o(i.CO_SDO_receive) for CO_SDO_receive
    co_sdoserver.o(i.CO_SDOserver_process) refers to co_odinterface.o(i.OD_find) for OD_find
    co_sdoserver.o(i.CO_SDOserver_process) refers to co_odinterface.o(i.OD_getSub) for OD_getSub
    co_sdoserver.o(i.CO_SDOserver_process) refers to co_odinterface.o(i.OD_getSDOabCode) for OD_getSDOabCode
    co_sdoserver.o(i.CO_SDOserver_process) refers to co_sdoserver.o(i.readFromOd) for readFromOd
    co_sdoserver.o(i.CO_SDOserver_process) refers to memmovea.o(.text) for __aeabi_memcpy4
    co_sdoserver.o(i.CO_SDOserver_process) refers to co_sdoserver.o(i.OD_mappable) for OD_mappable
    co_sdoserver.o(i.CO_SDOserver_process) refers to co_sdoserver.o(i.validateAndWriteToOD) for validateAndWriteToOD
    co_sdoserver.o(i.CO_SDOserver_process) refers to co_driver_stm32.o(i.CO_CANsend) for CO_CANsend
    co_sdoserver.o(i.CO_getUint32) refers to memmovea.o(.text) for __aeabi_memmove
    co_sdoserver.o(i.OD_get_u32) refers to co_odinterface.o(i.OD_get_value) for OD_get_value
    co_sdoserver.o(i.OD_set_u32) refers to co_odinterface.o(i.OD_set_value) for OD_set_value
    co_sdoserver.o(i.OD_write_1201_additional) refers to co_sdoserver.o(i.CO_getUint32) for CO_getUint32
    co_sdoserver.o(i.OD_write_1201_additional) refers to co_sdoserver.o(i.CO_SDOserver_init_canRxTx) for CO_SDOserver_init_canRxTx
    co_sdoserver.o(i.OD_write_1201_additional) refers to memmovea.o(.text) for __aeabi_memmove
    co_sdoserver.o(i.OD_write_1201_additional) refers to co_odinterface.o(i.OD_writeOriginal) for OD_writeOriginal
    co_sdoserver.o(i.readFromOd) refers to memmovea.o(.text) for __aeabi_memmove
    co_sdoserver.o(i.readFromOd) refers to co_sdoserver.o(i.OD_mappable) for OD_mappable
    co_sdoserver.o(i.readFromOd) refers to co_odinterface.o(i.OD_getSDOabCode) for OD_getSDOabCode
    co_sdoserver.o(i.readFromOd) refers to strlen.o(.text) for strlen
    co_sdoserver.o(i.validateAndWriteToOD) refers to co_sdoserver.o(i.OD_mappable) for OD_mappable
    co_sdoserver.o(i.validateAndWriteToOD) refers to co_odinterface.o(i.OD_getSDOabCode) for OD_getSDOabCode
    co_sync.o(i.CO_SYNC_init) refers to memseta.o(.text) for __aeabi_memclr4
    co_sync.o(i.CO_SYNC_init) refers to co_odinterface.o(i.OD_get_value) for OD_get_value
    co_sync.o(i.CO_SYNC_init) refers to co_sync.o(i.OD_getIndex) for OD_getIndex
    co_sync.o(i.CO_SYNC_init) refers to co_sync.o(i.OD_extension_init) for OD_extension_init
    co_sync.o(i.CO_SYNC_init) refers to co_odinterface.o(i.OD_getPtr) for OD_getPtr
    co_sync.o(i.CO_SYNC_init) refers to co_driver_stm32.o(i.CO_CANrxBufferInit) for CO_CANrxBufferInit
    co_sync.o(i.CO_SYNC_init) refers to co_driver_stm32.o(i.CO_CANtxBufferInit) for CO_CANtxBufferInit
    co_sync.o(i.CO_SYNC_init) refers to co_odinterface.o(i.OD_readOriginal) for OD_readOriginal
    co_sync.o(i.CO_SYNC_init) refers to co_sync.o(i.OD_write_1005) for OD_write_1005
    co_sync.o(i.CO_SYNC_init) refers to co_sync.o(i.OD_write_1019) for OD_write_1019
    co_sync.o(i.CO_SYNC_init) refers to co_sync.o(i.CO_SYNC_receive) for CO_SYNC_receive
    co_sync.o(i.CO_SYNC_process) refers to co_driver_stm32.o(i.CO_CANsend) for CO_CANsend
    co_sync.o(i.CO_SYNC_process) refers to co_emergency.o(i.CO_error) for CO_error
    co_sync.o(i.OD_write_1005) refers to memmovea.o(.text) for __aeabi_memmove
    co_sync.o(i.OD_write_1005) refers to co_driver_stm32.o(i.CO_CANrxBufferInit) for CO_CANrxBufferInit
    co_sync.o(i.OD_write_1005) refers to co_driver_stm32.o(i.CO_CANtxBufferInit) for CO_CANtxBufferInit
    co_sync.o(i.OD_write_1005) refers to co_odinterface.o(i.OD_writeOriginal) for OD_writeOriginal
    co_sync.o(i.OD_write_1005) refers to co_sync.o(i.CO_SYNC_receive) for CO_SYNC_receive
    co_sync.o(i.OD_write_1019) refers to memmovea.o(.text) for __aeabi_memmove
    co_sync.o(i.OD_write_1019) refers to co_driver_stm32.o(i.CO_CANtxBufferInit) for CO_CANtxBufferInit
    co_sync.o(i.OD_write_1019) refers to co_odinterface.o(i.OD_writeOriginal) for OD_writeOriginal
    co_time.o(i.CO_TIME_init) refers to memseta.o(.text) for __aeabi_memclr4
    co_time.o(i.CO_TIME_init) refers to co_odinterface.o(i.OD_get_value) for OD_get_value
    co_time.o(i.CO_TIME_init) refers to co_driver_stm32.o(i.CO_CANrxBufferInit) for CO_CANrxBufferInit
    co_time.o(i.CO_TIME_init) refers to co_odinterface.o(i.OD_readOriginal) for OD_readOriginal
    co_time.o(i.CO_TIME_init) refers to co_time.o(i.OD_write_1012) for OD_write_1012
    co_time.o(i.CO_TIME_init) refers to co_time.o(i.CO_TIME_receive) for CO_TIME_receive
    co_time.o(i.CO_TIME_process) refers to co_time.o(i.CO_getUint32) for CO_getUint32
    co_time.o(i.CO_TIME_process) refers to memmovea.o(.text) for __aeabi_memmove
    co_time.o(i.CO_getUint32) refers to memmovea.o(.text) for __aeabi_memmove
    co_time.o(i.OD_write_1012) refers to co_time.o(i.CO_getUint32) for CO_getUint32
    co_time.o(i.OD_write_1012) refers to co_odinterface.o(i.OD_writeOriginal) for OD_writeOriginal
    co_lssslave.o(i.CO_LSSslave_init) refers to memseta.o(.text) for __aeabi_memclr4
    co_lssslave.o(i.CO_LSSslave_init) refers to co_driver_stm32.o(i.CO_CANrxBufferInit) for CO_CANrxBufferInit
    co_lssslave.o(i.CO_LSSslave_init) refers to co_driver_stm32.o(i.CO_CANtxBufferInit) for CO_CANtxBufferInit
    co_lssslave.o(i.CO_LSSslave_init) refers to co_lssslave.o(i.CO_LSSslave_receive) for CO_LSSslave_receive
    co_lssslave.o(i.CO_LSSslave_process) refers to co_driver_stm32.o(i.CO_CANsend) for CO_CANsend
    co_lssslave.o(i.CO_LSSslave_process) refers to co_lssslave.o(.constdata) for CO_LSS_bitTimingTableLookup
    canopen.o(i.CO_CANinit) refers to co_driver_stm32.o(i.CO_CANsetConfigurationMode) for CO_CANsetConfigurationMode
    canopen.o(i.CO_CANinit) refers to co_driver_stm32.o(i.CO_CANmodule_init) for CO_CANmodule_init
    canopen.o(i.CO_CANopenInit) refers to co_leds.o(i.CO_LEDs_init) for CO_LEDs_init
    canopen.o(i.CO_CANopenInit) refers to co_emergency.o(i.CO_EM_init) for CO_EM_init
    canopen.o(i.CO_CANopenInit) refers to co_nmt_heartbeat.o(i.CO_NMT_init) for CO_NMT_init
    canopen.o(i.CO_CANopenInit) refers to co_hbconsumer.o(i.CO_HBconsumer_init) for CO_HBconsumer_init
    canopen.o(i.CO_CANopenInit) refers to co_sdoserver.o(i.CO_SDOserver_init) for CO_SDOserver_init
    canopen.o(i.CO_CANopenInit) refers to co_sdoclient.o(i.CO_SDOclient_init) for CO_SDOclient_init
    canopen.o(i.CO_CANopenInit) refers to co_time.o(i.CO_TIME_init) for CO_TIME_init
    canopen.o(i.CO_CANopenInit) refers to co_sync.o(i.CO_SYNC_init) for CO_SYNC_init
    canopen.o(i.CO_CANopenInit) refers to od.o(.data) for OD
    canopen.o(i.CO_CANopenInitPDO) refers to co_pdo.o(i.CO_RPDO_init) for CO_RPDO_init
    canopen.o(i.CO_CANopenInitPDO) refers to co_pdo.o(i.CO_TPDO_init) for CO_TPDO_init
    canopen.o(i.CO_CANopenInitPDO) refers to od.o(.data) for OD
    canopen.o(i.CO_LSSinit) refers to co_lssslave.o(i.CO_LSSslave_init) for CO_LSSslave_init
    canopen.o(i.CO_delete) refers to co_driver_stm32.o(i.CO_CANmodule_disable) for CO_CANmodule_disable
    canopen.o(i.CO_delete) refers to malloc.o(i.free) for free
    canopen.o(i.CO_new) refers to calloc.o(.text) for calloc
    canopen.o(i.CO_new) refers to canopen.o(i.CO_delete) for CO_delete
    canopen.o(i.CO_process) refers to canopen.o(i.CO_NMT_getInternalState) for CO_NMT_getInternalState
    canopen.o(i.CO_process) refers to co_driver_stm32.o(i.CO_CANmodule_process) for CO_CANmodule_process
    canopen.o(i.CO_process) refers to co_lssslave.o(i.CO_LSSslave_process) for CO_LSSslave_process
    canopen.o(i.CO_process) refers to canopen.o(i.CO_isError) for CO_isError
    canopen.o(i.CO_process) refers to co_leds.o(i.CO_LEDs_process) for CO_LEDs_process
    canopen.o(i.CO_process) refers to co_emergency.o(i.CO_EM_process) for CO_EM_process
    canopen.o(i.CO_process) refers to co_nmt_heartbeat.o(i.CO_NMT_process) for CO_NMT_process
    canopen.o(i.CO_process) refers to co_sdoserver.o(i.CO_SDOserver_process) for CO_SDOserver_process
    canopen.o(i.CO_process) refers to co_hbconsumer.o(i.CO_HBconsumer_process) for CO_HBconsumer_process
    canopen.o(i.CO_process) refers to co_time.o(i.CO_TIME_process) for CO_TIME_process
    canopen.o(i.CO_process_RPDO) refers to canopen.o(i.CO_NMT_getInternalState) for CO_NMT_getInternalState
    canopen.o(i.CO_process_RPDO) refers to co_pdo.o(i.CO_RPDO_process) for CO_RPDO_process
    canopen.o(i.CO_process_SYNC) refers to canopen.o(i.CO_NMT_getInternalState) for CO_NMT_getInternalState
    canopen.o(i.CO_process_SYNC) refers to co_sync.o(i.CO_SYNC_process) for CO_SYNC_process
    canopen.o(i.CO_process_SYNC) refers to co_driver_stm32.o(i.CO_CANclearPendingSyncPDOs) for CO_CANclearPendingSyncPDOs
    canopen.o(i.CO_process_TPDO) refers to canopen.o(i.CO_NMT_getInternalState) for CO_NMT_getInternalState
    canopen.o(i.CO_process_TPDO) refers to co_pdo.o(i.CO_TPDO_process) for CO_TPDO_process
    co_app_stm32.o(i.canopen_app_init) refers to canopen.o(i.CO_new) for CO_new
    co_app_stm32.o(i.canopen_app_init) refers to printf5.o(i.__0printf$5) for __2printf
    co_app_stm32.o(i.canopen_app_init) refers to co_app_stm32.o(i.canopen_app_resetCommunication) for canopen_app_resetCommunication
    co_app_stm32.o(i.canopen_app_init) refers to co_app_stm32.o(.data) for canopenNodeSTM32
    co_app_stm32.o(i.canopen_app_interrupt) refers to canopen.o(i.CO_process_SYNC) for CO_process_SYNC
    co_app_stm32.o(i.canopen_app_interrupt) refers to canopen.o(i.CO_process_RPDO) for CO_process_RPDO
    co_app_stm32.o(i.canopen_app_interrupt) refers to canopen.o(i.CO_process_TPDO) for CO_process_TPDO
    co_app_stm32.o(i.canopen_app_interrupt) refers to co_app_stm32.o(.data) for CO
    co_app_stm32.o(i.canopen_app_process) refers to stm32f4xx_hal.o(i.HAL_GetTick) for HAL_GetTick
    co_app_stm32.o(i.canopen_app_process) refers to canopen.o(i.CO_process) for CO_process
    co_app_stm32.o(i.canopen_app_process) refers to stm32f4xx_hal_tim.o(i.HAL_TIM_Base_Stop_IT) for HAL_TIM_Base_Stop_IT
    co_app_stm32.o(i.canopen_app_process) refers to co_driver_stm32.o(i.CO_CANsetConfigurationMode) for CO_CANsetConfigurationMode
    co_app_stm32.o(i.canopen_app_process) refers to canopen.o(i.CO_delete) for CO_delete
    co_app_stm32.o(i.canopen_app_process) refers to printf5.o(i.__0printf$5) for __2printf
    co_app_stm32.o(i.canopen_app_process) refers to co_app_stm32.o(i.canopen_app_init) for canopen_app_init
    co_app_stm32.o(i.canopen_app_process) refers to stm32f4xx_hal_cortex.o(i.HAL_NVIC_SystemReset) for HAL_NVIC_SystemReset
    co_app_stm32.o(i.canopen_app_process) refers to co_app_stm32.o(.data) for time_current
    co_app_stm32.o(i.canopen_app_resetCommunication) refers to printf5.o(i.__0printf$5) for __2printf
    co_app_stm32.o(i.canopen_app_resetCommunication) refers to co_driver_stm32.o(i.CO_CANsetConfigurationMode) for CO_CANsetConfigurationMode
    co_app_stm32.o(i.canopen_app_resetCommunication) refers to co_driver_stm32.o(i.CO_CANmodule_disable) for CO_CANmodule_disable
    co_app_stm32.o(i.canopen_app_resetCommunication) refers to canopen.o(i.CO_CANinit) for CO_CANinit
    co_app_stm32.o(i.canopen_app_resetCommunication) refers to canopen.o(i.CO_LSSinit) for CO_LSSinit
    co_app_stm32.o(i.canopen_app_resetCommunication) refers to canopen.o(i.CO_CANopenInit) for CO_CANopenInit
    co_app_stm32.o(i.canopen_app_resetCommunication) refers to canopen.o(i.CO_CANopenInitPDO) for CO_CANopenInitPDO
    co_app_stm32.o(i.canopen_app_resetCommunication) refers to stm32f4xx_hal_tim.o(i.HAL_TIM_Base_Start_IT) for HAL_TIM_Base_Start_IT
    co_app_stm32.o(i.canopen_app_resetCommunication) refers to co_driver_stm32.o(i.CO_CANsetNormalMode) for CO_CANsetNormalMode
    co_app_stm32.o(i.canopen_app_resetCommunication) refers to stm32f4xx_hal.o(i.HAL_GetTick) for HAL_GetTick
    co_app_stm32.o(i.canopen_app_resetCommunication) refers to co_app_stm32.o(.data) for CO
    co_app_stm32.o(i.canopen_app_resetCommunication) refers to od.o(.data) for OD_PERSIST_COMM
    co_app_stm32.o(i.canopen_app_resetCommunication) refers to stdout.o(.data) for __stdout
    co_driver_stm32.o(i.CO_CANinterrupt_TX) refers to co_driver_stm32.o(i.prv_send_can_message) for prv_send_can_message
    co_driver_stm32.o(i.CO_CANmodule_disable) refers to stm32f4xx_hal_can.o(i.HAL_CAN_Stop) for HAL_CAN_Stop
    co_driver_stm32.o(i.CO_CANmodule_init) refers to stm32f4xx_hal_can.o(i.HAL_CAN_ConfigFilter) for HAL_CAN_ConfigFilter
    co_driver_stm32.o(i.CO_CANmodule_init) refers to stm32f4xx_hal_can.o(i.HAL_CAN_ActivateNotification) for HAL_CAN_ActivateNotification
    co_driver_stm32.o(i.CO_CANmodule_init) refers to co_driver_stm32.o(.data) for CANModule_local
    co_driver_stm32.o(i.CO_CANsend) refers to co_driver_stm32.o(i.prv_send_can_message) for prv_send_can_message
    co_driver_stm32.o(i.CO_CANsetConfigurationMode) refers to stm32f4xx_hal_can.o(i.HAL_CAN_Stop) for HAL_CAN_Stop
    co_driver_stm32.o(i.CO_CANsetNormalMode) refers to stm32f4xx_hal_can.o(i.HAL_CAN_Start) for HAL_CAN_Start
    co_driver_stm32.o(i.HAL_CAN_RxFifo0MsgPendingCallback) refers to co_driver_stm32.o(i.prv_read_can_received_msg) for prv_read_can_received_msg
    co_driver_stm32.o(i.HAL_CAN_RxFifo1MsgPendingCallback) refers to co_driver_stm32.o(i.prv_read_can_received_msg) for prv_read_can_received_msg
    co_driver_stm32.o(i.HAL_CAN_TxMailbox0CompleteCallback) refers to co_driver_stm32.o(i.CO_CANinterrupt_TX) for CO_CANinterrupt_TX
    co_driver_stm32.o(i.HAL_CAN_TxMailbox0CompleteCallback) refers to co_driver_stm32.o(.data) for CANModule_local
    co_driver_stm32.o(i.HAL_CAN_TxMailbox1CompleteCallback) refers to co_driver_stm32.o(i.CO_CANinterrupt_TX) for CO_CANinterrupt_TX
    co_driver_stm32.o(i.HAL_CAN_TxMailbox1CompleteCallback) refers to co_driver_stm32.o(.data) for CANModule_local
    co_driver_stm32.o(i.HAL_CAN_TxMailbox2CompleteCallback) refers to co_driver_stm32.o(i.CO_CANinterrupt_TX) for CO_CANinterrupt_TX
    co_driver_stm32.o(i.HAL_CAN_TxMailbox2CompleteCallback) refers to co_driver_stm32.o(.data) for CANModule_local
    co_driver_stm32.o(i.prv_read_can_received_msg) refers to stm32f4xx_hal_can.o(i.HAL_CAN_GetRxMessage) for HAL_CAN_GetRxMessage
    co_driver_stm32.o(i.prv_read_can_received_msg) refers to co_driver_stm32.o(.bss) for rx_hdr
    co_driver_stm32.o(i.prv_read_can_received_msg) refers to co_driver_stm32.o(.data) for CANModule_local
    co_driver_stm32.o(i.prv_send_can_message) refers to stm32f4xx_hal_can.o(i.HAL_CAN_GetTxMailboxesFreeLevel) for HAL_CAN_GetTxMailboxesFreeLevel
    co_driver_stm32.o(i.prv_send_can_message) refers to stm32f4xx_hal_can.o(i.HAL_CAN_AddTxMessage) for HAL_CAN_AddTxMessage
    co_driver_stm32.o(i.prv_send_can_message) refers to co_driver_stm32.o(.bss) for tx_hdr
    od.o(.constdata) refers to od.o(.data) for OD_PERSIST_COMM
    od.o(.data) refers to od.o(.constdata) for ODObjs
    jawd_speed.o(i.enable_motor) refers to canopen_operate.o(i.write_SDO) for write_SDO
    jawd_speed.o(i.enable_motor) refers to printf5.o(i.__0printf$5) for __2printf
    jawd_speed.o(i.enable_motor) refers to jawd_speed.o(.bss) for g_ucTempBuf
    jawd_speed.o(i.enable_motor) refers to co_app_stm32.o(.data) for CO
    jawd_speed.o(i.enable_motor) refers to jawd_speed.o(.data) for motorspeed_state
    jawd_speed.o(i.motor_05h) refers to canopen_operate.o(i.SendNMTCommand) for SendNMTCommand
    jawd_speed.o(i.motor_05h) refers to jawd_speed.o(i.enable_motor) for enable_motor
    jawd_speed.o(i.motor_05h) refers to jawd_speed.o(i.motorspeed_init) for motorspeed_init
    jawd_speed.o(i.motor_05h) refers to jawd_speed.o(i.motorstart) for motorstart
    jawd_speed.o(i.motor_05h) refers to jawd_speed.o(i.motorstop) for motorstop
    jawd_speed.o(i.motor_05h) refers to jawd_speed.o(i.setspeed_1) for setspeed_1
    jawd_speed.o(i.motor_05h) refers to jawd_speed.o(i.setspeed_2) for setspeed_2
    jawd_speed.o(i.motor_05h) refers to jawd_speed.o(i.readspeed) for readspeed
    jawd_speed.o(i.motor_05h) refers to modbus_slave.o(.bss) for g_tVar
    jawd_speed.o(i.motor_05h) refers to canopen_operate.o(.data) for NMT_STATE
    jawd_speed.o(i.motor_05h) refers to jawd_speed.o(.data) for motorspeed_state
    jawd_speed.o(i.motorspeed_init) refers to printf5.o(i.__0printf$5) for __2printf
    jawd_speed.o(i.motorspeed_init) refers to canopen_operate.o(i.write_SDO) for write_SDO
    jawd_speed.o(i.motorspeed_init) refers to jawd_speed.o(.data) for motorspeed_state
    jawd_speed.o(i.motorspeed_init) refers to jawd_speed.o(.bss) for g_ucTempBuf
    jawd_speed.o(i.motorspeed_init) refers to co_app_stm32.o(.data) for CO
    jawd_speed.o(i.motorstart) refers to canopen_operate.o(i.write_SDO) for write_SDO
    jawd_speed.o(i.motorstart) refers to printf5.o(i.__0printf$5) for __2printf
    jawd_speed.o(i.motorstart) refers to jawd_speed.o(.data) for motorspeed_state
    jawd_speed.o(i.motorstart) refers to jawd_speed.o(.bss) for g_ucTempBuf
    jawd_speed.o(i.motorstart) refers to co_app_stm32.o(.data) for CO
    jawd_speed.o(i.motorstop) refers to canopen_operate.o(i.write_SDO) for write_SDO
    jawd_speed.o(i.motorstop) refers to printf5.o(i.__0printf$5) for __2printf
    jawd_speed.o(i.motorstop) refers to jawd_speed.o(.data) for motorspeed_state
    jawd_speed.o(i.motorstop) refers to jawd_speed.o(.bss) for g_ucTempBuf
    jawd_speed.o(i.motorstop) refers to co_app_stm32.o(.data) for CO
    jawd_speed.o(i.readacc) refers to canopen_operate.o(i.read_SDO) for read_SDO
    jawd_speed.o(i.readacc) refers to jawd_speed.o(.data) for g_uiReadSize
    jawd_speed.o(i.readacc) refers to jawd_speed.o(.bss) for g_ucTempBuf
    jawd_speed.o(i.readacc) refers to co_app_stm32.o(.data) for CO
    jawd_speed.o(i.readdcc) refers to canopen_operate.o(i.read_SDO) for read_SDO
    jawd_speed.o(i.readdcc) refers to jawd_speed.o(.data) for g_uiReadSize
    jawd_speed.o(i.readdcc) refers to jawd_speed.o(.bss) for g_ucTempBuf
    jawd_speed.o(i.readdcc) refers to co_app_stm32.o(.data) for CO
    jawd_speed.o(i.readspeed) refers to canopen_operate.o(i.read_SDO) for read_SDO
    jawd_speed.o(i.readspeed) refers to printf5.o(i.__0printf$5) for __2printf
    jawd_speed.o(i.readspeed) refers to jawd_speed.o(.data) for g_uiReadSize
    jawd_speed.o(i.readspeed) refers to jawd_speed.o(.bss) for g_ucTempBuf
    jawd_speed.o(i.readspeed) refers to co_app_stm32.o(.data) for CO
    jawd_speed.o(i.readspeed_taget) refers to canopen_operate.o(i.read_SDO) for read_SDO
    jawd_speed.o(i.readspeed_taget) refers to printf5.o(i.__0printf$5) for __2printf
    jawd_speed.o(i.readspeed_taget) refers to jawd_speed.o(.data) for g_uiReadSize
    jawd_speed.o(i.readspeed_taget) refers to jawd_speed.o(.bss) for g_ucTempBuf
    jawd_speed.o(i.readspeed_taget) refers to co_app_stm32.o(.data) for CO
    jawd_speed.o(i.setacc) refers to canopen_operate.o(i.write_SDO) for write_SDO
    jawd_speed.o(i.setacc) refers to printf5.o(i.__0printf$5) for __2printf
    jawd_speed.o(i.setacc) refers to jawd_speed.o(.bss) for g_ucTempBuf
    jawd_speed.o(i.setacc) refers to co_app_stm32.o(.data) for CO
    jawd_speed.o(i.setdcc) refers to canopen_operate.o(i.write_SDO) for write_SDO
    jawd_speed.o(i.setdcc) refers to printf5.o(i.__0printf$5) for __2printf
    jawd_speed.o(i.setdcc) refers to jawd_speed.o(.bss) for g_ucTempBuf
    jawd_speed.o(i.setdcc) refers to co_app_stm32.o(.data) for CO
    jawd_speed.o(i.setspeed) refers to canopen_operate.o(i.write_SDO) for write_SDO
    jawd_speed.o(i.setspeed) refers to printf5.o(i.__0printf$5) for __2printf
    jawd_speed.o(i.setspeed) refers to jawd_speed.o(.bss) for g_ucTempBuf
    jawd_speed.o(i.setspeed) refers to co_app_stm32.o(.data) for CO
    jawd_speed.o(i.setspeed_1) refers to canopen_operate.o(i.write_SDO) for write_SDO
    jawd_speed.o(i.setspeed_1) refers to printf5.o(i.__0printf$5) for __2printf
    jawd_speed.o(i.setspeed_1) refers to jawd_speed.o(.bss) for g_ucTempBuf
    jawd_speed.o(i.setspeed_1) refers to co_app_stm32.o(.data) for CO
    jawd_speed.o(i.setspeed_2) refers to canopen_operate.o(i.write_SDO) for write_SDO
    jawd_speed.o(i.setspeed_2) refers to printf5.o(i.__0printf$5) for __2printf
    jawd_speed.o(i.setspeed_2) refers to jawd_speed.o(.bss) for g_ucTempBuf
    jawd_speed.o(i.setspeed_2) refers to co_app_stm32.o(.data) for CO
    canopen_operate.o(i.SendNMTCommand) refers to co_nmt_heartbeat.o(i.CO_NMT_sendCommand) for CO_NMT_sendCommand
    canopen_operate.o(i.SendNMTCommand) refers to printf5.o(i.__0printf$5) for __2printf
    canopen_operate.o(i.SendNMTCommand) refers to co_app_stm32.o(.data) for CO
    canopen_operate.o(i.SendNMTCommand) refers to canopen_operate.o(.data) for NMT_STATE
    canopen_operate.o(i.read_SDO) refers to co_sdoclient.o(i.CO_SDOclient_setup) for CO_SDOclient_setup
    canopen_operate.o(i.read_SDO) refers to co_sdoclient.o(i.CO_SDOclientUploadInitiate) for CO_SDOclientUploadInitiate
    canopen_operate.o(i.read_SDO) refers to co_sdoclient.o(i.CO_SDOclientUpload) for CO_SDOclientUpload
    canopen_operate.o(i.read_SDO) refers to stm32f4xx_hal.o(i.HAL_Delay) for HAL_Delay
    canopen_operate.o(i.read_SDO) refers to co_sdoclient.o(i.CO_SDOclientUploadBufRead) for CO_SDOclientUploadBufRead
    canopen_operate.o(i.write_SDO) refers to co_sdoclient.o(i.CO_SDOclient_setup) for CO_SDOclient_setup
    canopen_operate.o(i.write_SDO) refers to co_sdoclient.o(i.CO_SDOclientDownloadInitiate) for CO_SDOclientDownloadInitiate
    canopen_operate.o(i.write_SDO) refers to co_sdoclient.o(i.CO_SDOclientDownloadBufWrite) for CO_SDOclientDownloadBufWrite
    canopen_operate.o(i.write_SDO) refers to co_sdoclient.o(i.CO_SDOclientDownload) for CO_SDOclientDownload
    canopen_operate.o(i.write_SDO) refers to stm32f4xx_hal.o(i.HAL_Delay) for HAL_Delay
    key.o(i.HAL_GPIO_EXTI_Callback) refers to stm32f4xx_hal_gpio.o(i.HAL_GPIO_ReadPin) for HAL_GPIO_ReadPin
    key.o(i.HAL_GPIO_EXTI_Callback) refers to key.o(i.bsp_PutKey) for bsp_PutKey
    key.o(i.bsp_GetKey) refers to key.o(.bss) for s_tKey
    key.o(i.bsp_PutKey) refers to key.o(.bss) for s_tKey
    modbus_tim.o(i.TIM2_IRQHandler) refers to modbus_tim.o(.data) for s_TIM_CallBack1
    modbus_tim.o(i.bsp_InitHardTimer) refers to memseta.o(.text) for __aeabi_memclr4
    modbus_tim.o(i.bsp_InitHardTimer) refers to stm32f4xx_hal_tim.o(i.HAL_TIM_Base_Init) for HAL_TIM_Base_Init
    modbus_tim.o(i.bsp_InitHardTimer) refers to stm32f4xx_hal_cortex.o(i.HAL_NVIC_SetPriority) for HAL_NVIC_SetPriority
    modbus_tim.o(i.bsp_InitHardTimer) refers to stm32f4xx_hal_cortex.o(i.HAL_NVIC_EnableIRQ) for HAL_NVIC_EnableIRQ
    modbus_tim.o(i.bsp_InitHardTimer) refers to stm32f4xx_hal_tim.o(i.HAL_TIM_Base_Start) for HAL_TIM_Base_Start
    modbus_tim.o(i.bsp_InitHardTimer) refers to system_stm32f4xx.o(.data) for SystemCoreClock
    modbus_tim.o(i.bsp_StartHardTimer) refers to modbus_tim.o(.data) for s_TIM_CallBack1
    modbus_usart.o(i.ComToUart) refers to modbus_usart.o(.bss) for g_tUart3
    modbus_usart.o(i.InitHardUart) refers to stm32f4xx_hal_gpio.o(i.HAL_GPIO_Init) for HAL_GPIO_Init
    modbus_usart.o(i.InitHardUart) refers to stm32f4xx_hal_cortex.o(i.HAL_NVIC_SetPriority) for HAL_NVIC_SetPriority
    modbus_usart.o(i.InitHardUart) refers to stm32f4xx_hal_cortex.o(i.HAL_NVIC_EnableIRQ) for HAL_NVIC_EnableIRQ
    modbus_usart.o(i.InitHardUart) refers to modbus_usart.o(i.bsp_SetUartParam) for bsp_SetUartParam
    modbus_usart.o(i.RS485_InitTXE) refers to stm32f4xx_hal_gpio.o(i.HAL_GPIO_Init) for HAL_GPIO_Init
    modbus_usart.o(i.RS485_ReciveNew) refers to modbus_slave.o(i.MODS_ReciveNew) for MODS_ReciveNew
    modbus_usart.o(i.RS485_SendBuf) refers to modbus_usart.o(i.comSendBuf) for comSendBuf
    modbus_usart.o(i.RS485_SendStr) refers to strlen.o(.text) for strlen
    modbus_usart.o(i.RS485_SendStr) refers to modbus_usart.o(i.RS485_SendBuf) for RS485_SendBuf
    modbus_usart.o(i.RS485_SetBaud) refers to modbus_usart.o(i.comSetBaud) for comSetBaud
    modbus_usart.o(i.USART3_IRQHandler) refers to modbus_usart.o(i.UartIRQ) for UartIRQ
    modbus_usart.o(i.USART3_IRQHandler) refers to modbus_usart.o(.bss) for g_tUart3
    modbus_usart.o(i.UartGetChar) refers to modbus_usart.o(i.__set_PRIMASK) for __set_PRIMASK
    modbus_usart.o(i.UartSend) refers to modbus_usart.o(i.__set_PRIMASK) for __set_PRIMASK
    modbus_usart.o(i.UartTxEmpty) refers to modbus_usart.o(i.ComToUart) for ComToUart
    modbus_usart.o(i.UartVarInit) refers to modbus_usart.o(.bss) for g_tUart3
    modbus_usart.o(i.UartVarInit) refers to modbus_usart.o(i.RS485_SendBefor) for RS485_SendBefor
    modbus_usart.o(i.UartVarInit) refers to modbus_usart.o(i.RS485_SendOver) for RS485_SendOver
    modbus_usart.o(i.UartVarInit) refers to modbus_usart.o(i.RS485_ReciveNew) for RS485_ReciveNew
    modbus_usart.o(i.bsp_InitUart) refers to modbus_usart.o(i.UartVarInit) for UartVarInit
    modbus_usart.o(i.bsp_InitUart) refers to modbus_usart.o(i.InitHardUart) for InitHardUart
    modbus_usart.o(i.bsp_InitUart) refers to modbus_usart.o(i.RS485_InitTXE) for RS485_InitTXE
    modbus_usart.o(i.bsp_SetUartParam) refers to memseta.o(.text) for __aeabi_memclr4
    modbus_usart.o(i.bsp_SetUartParam) refers to stm32f4xx_hal_uart.o(i.HAL_UART_Init) for HAL_UART_Init
    modbus_usart.o(i.comClearRxFifo) refers to modbus_usart.o(i.ComToUart) for ComToUart
    modbus_usart.o(i.comClearTxFifo) refers to modbus_usart.o(i.ComToUart) for ComToUart
    modbus_usart.o(i.comGetChar) refers to modbus_usart.o(i.ComToUart) for ComToUart
    modbus_usart.o(i.comGetChar) refers to modbus_usart.o(i.UartGetChar) for UartGetChar
    modbus_usart.o(i.comSendBuf) refers to modbus_usart.o(i.ComToUart) for ComToUart
    modbus_usart.o(i.comSendBuf) refers to modbus_usart.o(i.UartSend) for UartSend
    modbus_usart.o(i.comSendChar) refers to modbus_usart.o(i.comSendBuf) for comSendBuf
    modbus_usart.o(i.comSetBaud) refers to modbus_usart.o(i.ComToUSARTx) for ComToUSARTx
    modbus_usart.o(i.comSetBaud) refers to modbus_usart.o(i.bsp_SetUartParam) for bsp_SetUartParam
    modbus_slave.o(i.MODS_01H) refers to user_lib.o(i.BEBufToUint16) for BEBufToUint16
    modbus_slave.o(i.MODS_01H) refers to modbus_slave.o(i.MODS_SendWithCRC) for MODS_SendWithCRC
    modbus_slave.o(i.MODS_01H) refers to modbus_slave.o(i.MODS_SendAckErr) for MODS_SendAckErr
    modbus_slave.o(i.MODS_01H) refers to modbus_slave.o(.bss) for g_tModS
    modbus_slave.o(i.MODS_02H) refers to user_lib.o(i.BEBufToUint16) for BEBufToUint16
    modbus_slave.o(i.MODS_02H) refers to modbus_slave.o(i.MODS_SendWithCRC) for MODS_SendWithCRC
    modbus_slave.o(i.MODS_02H) refers to modbus_slave.o(i.MODS_SendAckErr) for MODS_SendAckErr
    modbus_slave.o(i.MODS_02H) refers to modbus_slave.o(.bss) for g_tModS
    modbus_slave.o(i.MODS_03H) refers to user_lib.o(i.BEBufToUint16) for BEBufToUint16
    modbus_slave.o(i.MODS_03H) refers to modbus_slave.o(i.MODS_ReadRegValue) for MODS_ReadRegValue
    modbus_slave.o(i.MODS_03H) refers to modbus_slave.o(i.MODS_SendWithCRC) for MODS_SendWithCRC
    modbus_slave.o(i.MODS_03H) refers to modbus_slave.o(i.MODS_SendAckErr) for MODS_SendAckErr
    modbus_slave.o(i.MODS_03H) refers to modbus_slave.o(.bss) for g_tModS
    modbus_slave.o(i.MODS_04H) refers to memseta.o(.text) for __aeabi_memclr4
    modbus_slave.o(i.MODS_04H) refers to user_lib.o(i.BEBufToUint16) for BEBufToUint16
    modbus_slave.o(i.MODS_04H) refers to modbus_slave.o(i.MODS_SendWithCRC) for MODS_SendWithCRC
    modbus_slave.o(i.MODS_04H) refers to modbus_slave.o(i.MODS_SendAckErr) for MODS_SendAckErr
    modbus_slave.o(i.MODS_04H) refers to modbus_slave.o(.bss) for g_tModS
    modbus_slave.o(i.MODS_05H) refers to user_lib.o(i.BEBufToUint16) for BEBufToUint16
    modbus_slave.o(i.MODS_05H) refers to modbus_slave.o(i.MODS_SendAckOk) for MODS_SendAckOk
    modbus_slave.o(i.MODS_05H) refers to modbus_slave.o(i.MODS_SendAckErr) for MODS_SendAckErr
    modbus_slave.o(i.MODS_05H) refers to modbus_slave.o(.bss) for g_tModS
    modbus_slave.o(i.MODS_06H) refers to user_lib.o(i.BEBufToUint16) for BEBufToUint16
    modbus_slave.o(i.MODS_06H) refers to modbus_slave.o(i.MODS_WriteRegValue) for MODS_WriteRegValue
    modbus_slave.o(i.MODS_06H) refers to modbus_slave.o(i.MODS_SendAckOk) for MODS_SendAckOk
    modbus_slave.o(i.MODS_06H) refers to modbus_slave.o(i.MODS_SendAckErr) for MODS_SendAckErr
    modbus_slave.o(i.MODS_06H) refers to modbus_slave.o(.bss) for g_tModS
    modbus_slave.o(i.MODS_10H) refers to user_lib.o(i.BEBufToUint16) for BEBufToUint16
    modbus_slave.o(i.MODS_10H) refers to modbus_slave.o(i.MODS_WriteRegValue) for MODS_WriteRegValue
    modbus_slave.o(i.MODS_10H) refers to modbus_slave.o(i.MODS_SendAckOk) for MODS_SendAckOk
    modbus_slave.o(i.MODS_10H) refers to modbus_slave.o(i.MODS_SendAckErr) for MODS_SendAckErr
    modbus_slave.o(i.MODS_10H) refers to modbus_slave.o(.bss) for g_tModS
    modbus_slave.o(i.MODS_AnalyzeApp) refers to modbus_slave.o(i.MODS_01H) for MODS_01H
    modbus_slave.o(i.MODS_AnalyzeApp) refers to modbus_msg.o(i.bsp_PutMsg) for bsp_PutMsg
    modbus_slave.o(i.MODS_AnalyzeApp) refers to modbus_slave.o(i.MODS_02H) for MODS_02H
    modbus_slave.o(i.MODS_AnalyzeApp) refers to modbus_slave.o(i.MODS_03H) for MODS_03H
    modbus_slave.o(i.MODS_AnalyzeApp) refers to modbus_slave.o(i.MODS_04H) for MODS_04H
    modbus_slave.o(i.MODS_AnalyzeApp) refers to modbus_slave.o(i.MODS_05H) for MODS_05H
    modbus_slave.o(i.MODS_AnalyzeApp) refers to modbus_slave.o(i.MODS_06H) for MODS_06H
    modbus_slave.o(i.MODS_AnalyzeApp) refers to modbus_slave.o(i.MODS_10H) for MODS_10H
    modbus_slave.o(i.MODS_AnalyzeApp) refers to modbus_slave.o(i.MODS_SendAckErr) for MODS_SendAckErr
    modbus_slave.o(i.MODS_AnalyzeApp) refers to modbus_slave.o(.bss) for g_tModS
    modbus_slave.o(i.MODS_Poll) refers to user_lib.o(i.CRC16_Modbus) for CRC16_Modbus
    modbus_slave.o(i.MODS_Poll) refers to modbus_slave.o(i.MODS_AnalyzeApp) for MODS_AnalyzeApp
    modbus_slave.o(i.MODS_Poll) refers to modbus_slave.o(.data) for g_mods_timeout
    modbus_slave.o(i.MODS_Poll) refers to modbus_slave.o(.bss) for g_tModS
    modbus_slave.o(i.MODS_ReadRegValue) refers to jawd_speed.o(i.readspeed_taget) for readspeed_taget
    modbus_slave.o(i.MODS_ReadRegValue) refers to jawd_speed.o(i.readacc) for readacc
    modbus_slave.o(i.MODS_ReadRegValue) refers to jawd_speed.o(i.readdcc) for readdcc
    modbus_slave.o(i.MODS_ReadRegValue) refers to jawd_speed.o(i.readspeed) for readspeed
    modbus_slave.o(i.MODS_ReadRegValue) refers to modbus_slave.o(.bss) for g_tVar
    modbus_slave.o(i.MODS_ReciveNew) refers to modbus_tim.o(i.bsp_StartHardTimer) for bsp_StartHardTimer
    modbus_slave.o(i.MODS_ReciveNew) refers to modbus_slave.o(.constdata) for ModbusBaudRate
    modbus_slave.o(i.MODS_ReciveNew) refers to modbus_slave.o(.data) for g_mods_timeout
    modbus_slave.o(i.MODS_ReciveNew) refers to modbus_slave.o(i.MODS_RxTimeOut) for MODS_RxTimeOut
    modbus_slave.o(i.MODS_ReciveNew) refers to modbus_slave.o(.bss) for g_tModS
    modbus_slave.o(i.MODS_RxTimeOut) refers to modbus_slave.o(.data) for g_mods_timeout
    modbus_slave.o(i.MODS_SendAckErr) refers to modbus_slave.o(i.MODS_SendWithCRC) for MODS_SendWithCRC
    modbus_slave.o(i.MODS_SendAckErr) refers to modbus_slave.o(.bss) for g_tModS
    modbus_slave.o(i.MODS_SendAckOk) refers to modbus_slave.o(i.MODS_SendWithCRC) for MODS_SendWithCRC
    modbus_slave.o(i.MODS_SendAckOk) refers to modbus_slave.o(.bss) for g_tModS
    modbus_slave.o(i.MODS_SendWithCRC) refers to memmovea.o(.text) for __aeabi_memcpy
    modbus_slave.o(i.MODS_SendWithCRC) refers to user_lib.o(i.CRC16_Modbus) for CRC16_Modbus
    modbus_slave.o(i.MODS_SendWithCRC) refers to modbus_usart.o(i.RS485_SendBuf) for RS485_SendBuf
    modbus_slave.o(i.MODS_WriteRegValue) refers to jawd_speed.o(i.setspeed_1) for setspeed_1
    modbus_slave.o(i.MODS_WriteRegValue) refers to jawd_speed.o(i.setspeed_2) for setspeed_2
    modbus_slave.o(i.MODS_WriteRegValue) refers to jawd_speed.o(i.setacc) for setacc
    modbus_slave.o(i.MODS_WriteRegValue) refers to jawd_speed.o(i.setdcc) for setdcc
    modbus_slave.o(i.MODS_WriteRegValue) refers to modbus_slave.o(.bss) for g_tVar
    user_lib.o(i.CRC16_Modbus) refers to user_lib.o(.constdata) for s_CRCHi
    user_lib.o(i.CaculTwoPoint) refers to ldiv.o(.text) for __aeabi_ldivmod
    user_lib.o(i.HexToAscll) refers to user_lib.o(i.BcdToChar) for BcdToChar
    user_lib.o(i.int_to_str) refers to user_lib.o(i.mem_set) for mem_set
    modbus_msg.o(i.bsp_ClearMsg) refers to modbus_msg.o(.bss) for g_tMsg
    modbus_msg.o(i.bsp_GetMsg) refers to modbus_msg.o(.bss) for g_tMsg
    modbus_msg.o(i.bsp_GetMsg2) refers to modbus_msg.o(.bss) for g_tMsg
    modbus_msg.o(i.bsp_InitMsg) refers to modbus_msg.o(i.bsp_ClearMsg) for bsp_ClearMsg
    modbus_msg.o(i.bsp_PutMsg) refers to modbus_msg.o(.bss) for g_tMsg
    eventrecorder.o(i.EventCheckFilter) refers to eventrecorder.o(.bss.noinit) for EventStatus
    eventrecorder.o(i.EventGetTS) refers to eventrecorder.o(i.EventRecorderTimerGet) for EventRecorderTimerGet
    eventrecorder.o(i.EventGetTS) refers to eventrecorder.o(i.atomic_xch32) for atomic_xch32
    eventrecorder.o(i.EventGetTS) refers to eventrecorder.o(i.atomic_inc32) for atomic_inc32
    eventrecorder.o(i.EventGetTS) refers to eventrecorder.o(.bss.noinit) for EventStatus
    eventrecorder.o(i.EventRecord2) refers to eventrecorder.o(i.EventCheckFilter) for EventCheckFilter
    eventrecorder.o(i.EventRecord2) refers to eventrecorder.o(i.EventGetTS) for EventGetTS
    eventrecorder.o(i.EventRecord2) refers to eventrecorder.o(i.EventRecordItem) for EventRecordItem
    eventrecorder.o(i.EventRecord4) refers to eventrecorder.o(i.EventCheckFilter) for EventCheckFilter
    eventrecorder.o(i.EventRecord4) refers to eventrecorder.o(i.EventGetTS) for EventGetTS
    eventrecorder.o(i.EventRecord4) refers to eventrecorder.o(i.GetContext) for GetContext
    eventrecorder.o(i.EventRecord4) refers to eventrecorder.o(i.EventRecordItem) for EventRecordItem
    eventrecorder.o(i.EventRecordData) refers to eventrecorder.o(i.EventCheckFilter) for EventCheckFilter
    eventrecorder.o(i.EventRecordData) refers to eventrecorder.o(i.EventGetTS) for EventGetTS
    eventrecorder.o(i.EventRecordData) refers to eventrecorder.o(i.EventRecordItem) for EventRecordItem
    eventrecorder.o(i.EventRecordData) refers to memmovea.o(.text) for __aeabi_memcpy
    eventrecorder.o(i.EventRecordData) refers to eventrecorder.o(i.GetContext) for GetContext
    eventrecorder.o(i.EventRecordItem) refers to eventrecorder.o(i.atomic_inc32) for atomic_inc32
    eventrecorder.o(i.EventRecordItem) refers to eventrecorder.o(.bss.noinit) for EventStatus
    eventrecorder.o(i.EventRecorderDisable) refers to eventrecorder.o(.bss.noinit) for EventFilter
    eventrecorder.o(i.EventRecorderEnable) refers to eventrecorder.o(.bss.noinit) for EventFilter
    eventrecorder.o(i.EventRecorderInitialize) refers to eventrecorder.o(i.crc16_ccitt) for crc16_ccitt
    eventrecorder.o(i.EventRecorderInitialize) refers to memseta.o(.text) for __aeabi_memclr4
    eventrecorder.o(i.EventRecorderInitialize) refers to eventrecorder.o(i.EventRecorderEnable) for EventRecorderEnable
    eventrecorder.o(i.EventRecorderInitialize) refers to eventrecorder.o(i.EventRecorderTimerInit) for EventRecorderTimerInit
    eventrecorder.o(i.EventRecorderInitialize) refers to eventrecorder.o(i.EventGetTS) for EventGetTS
    eventrecorder.o(i.EventRecorderInitialize) refers to eventrecorder.o(i.EventRecordItem) for EventRecordItem
    eventrecorder.o(i.EventRecorderInitialize) refers to eventrecorder.o(.constdata) for EventRecorderInfo
    eventrecorder.o(i.EventRecorderInitialize) refers to eventrecorder.o(.bss.noinit) for EventStatus
    eventrecorder.o(i.EventRecorderStart) refers to eventrecorder.o(i.EventGetTS) for EventGetTS
    eventrecorder.o(i.EventRecorderStart) refers to eventrecorder.o(i.EventRecordItem) for EventRecordItem
    eventrecorder.o(i.EventRecorderStart) refers to eventrecorder.o(.bss.noinit) for EventStatus
    eventrecorder.o(i.EventRecorderStop) refers to eventrecorder.o(i.EventGetTS) for EventGetTS
    eventrecorder.o(i.EventRecorderStop) refers to eventrecorder.o(i.EventRecordItem) for EventRecordItem
    eventrecorder.o(i.EventRecorderStop) refers to eventrecorder.o(.bss.noinit) for EventStatus
    eventrecorder.o(i.EventRecorderTimerInit) refers to system_stm32f4xx.o(.data) for SystemCoreClock
    eventrecorder.o(i.GetContext) refers to eventrecorder.o(i.atomic_inc8) for atomic_inc8
    eventrecorder.o(i.GetContext) refers to eventrecorder.o(.bss.noinit) for EventStatus
    eventrecorder.o(.constdata) refers to eventrecorder.o(.bss.noinit) for EventBuffer
    entry.o(.ARM.Collect$$$$00000000) refers (Special) to entry10a.o(.ARM.Collect$$$$0000000D) for __rt_final_cpp
    entry.o(.ARM.Collect$$$$00000000) refers (Special) to entry11a.o(.ARM.Collect$$$$0000000F) for __rt_final_exit
    entry.o(.ARM.Collect$$$$00000000) refers (Special) to entry7b.o(.ARM.Collect$$$$00000008) for _main_clock
    entry.o(.ARM.Collect$$$$00000000) refers (Special) to entry8b.o(.ARM.Collect$$$$0000000A) for _main_cpp_init
    entry.o(.ARM.Collect$$$$00000000) refers (Special) to entry9a.o(.ARM.Collect$$$$0000000B) for _main_init
    entry.o(.ARM.Collect$$$$00000000) refers (Special) to entry5.o(.ARM.Collect$$$$00000004) for _main_scatterload
    entry.o(.ARM.Collect$$$$00000000) refers (Special) to entry2.o(.ARM.Collect$$$$00000001) for _main_stk
    uldiv.o(.text) refers to llushr.o(.text) for __aeabi_llsr
    uldiv.o(.text) refers to llshl.o(.text) for __aeabi_llsl
    ldiv.o(.text) refers to uldiv.o(.text) for __aeabi_uldivmod
    printfb.o(i.__0fprintf$bare) refers to printfb.o(i._printf_core) for _printf_core
    printfb.o(i.__0fprintf$bare) refers to usart.o(i.fputc) for fputc
    printfb.o(i.__0printf$bare) refers to printfb.o(i._printf_core) for _printf_core
    printfb.o(i.__0printf$bare) refers to usart.o(i.fputc) for fputc
    printfb.o(i.__0printf$bare) refers to stdout.o(.data) for __stdout
    printfb.o(i.__0snprintf$bare) refers to printfb.o(i._printf_core) for _printf_core
    printfb.o(i.__0snprintf$bare) refers to printfb.o(i._snputc) for _snputc
    printfb.o(i.__0sprintf$bare) refers to printfb.o(i._printf_core) for _printf_core
    printfb.o(i.__0sprintf$bare) refers to printfb.o(i._sputc) for _sputc
    printfb.o(i.__0vfprintf$bare) refers to printfb.o(i._printf_core) for _printf_core
    printfb.o(i.__0vfprintf$bare) refers to usart.o(i.fputc) for fputc
    printfb.o(i.__0vprintf$bare) refers to printfb.o(i._printf_core) for _printf_core
    printfb.o(i.__0vprintf$bare) refers to usart.o(i.fputc) for fputc
    printfb.o(i.__0vprintf$bare) refers to stdout.o(.data) for __stdout
    printfb.o(i.__0vsnprintf$bare) refers to printfb.o(i._printf_core) for _printf_core
    printfb.o(i.__0vsnprintf$bare) refers to printfb.o(i._snputc) for _snputc
    printfb.o(i.__0vsprintf$bare) refers to printfb.o(i._printf_core) for _printf_core
    printfb.o(i.__0vsprintf$bare) refers to printfb.o(i._sputc) for _sputc
    printf0.o(i.__0fprintf$0) refers to printf0.o(i._printf_core) for _printf_core
    printf0.o(i.__0fprintf$0) refers to usart.o(i.fputc) for fputc
    printf0.o(i.__0printf$0) refers to printf0.o(i._printf_core) for _printf_core
    printf0.o(i.__0printf$0) refers to usart.o(i.fputc) for fputc
    printf0.o(i.__0printf$0) refers to stdout.o(.data) for __stdout
    printf0.o(i.__0snprintf$0) refers to printf0.o(i._printf_core) for _printf_core
    printf0.o(i.__0snprintf$0) refers to printf0.o(i._snputc) for _snputc
    printf0.o(i.__0sprintf$0) refers to printf0.o(i._printf_core) for _printf_core
    printf0.o(i.__0sprintf$0) refers to printf0.o(i._sputc) for _sputc
    printf0.o(i.__0vfprintf$0) refers to printf0.o(i._printf_core) for _printf_core
    printf0.o(i.__0vfprintf$0) refers to usart.o(i.fputc) for fputc
    printf0.o(i.__0vprintf$0) refers to printf0.o(i._printf_core) for _printf_core
    printf0.o(i.__0vprintf$0) refers to usart.o(i.fputc) for fputc
    printf0.o(i.__0vprintf$0) refers to stdout.o(.data) for __stdout
    printf0.o(i.__0vsnprintf$0) refers to printf0.o(i._printf_core) for _printf_core
    printf0.o(i.__0vsnprintf$0) refers to printf0.o(i._snputc) for _snputc
    printf0.o(i.__0vsprintf$0) refers to printf0.o(i._printf_core) for _printf_core
    printf0.o(i.__0vsprintf$0) refers to printf0.o(i._sputc) for _sputc
    printf1.o(i.__0fprintf$1) refers to printf1.o(i._printf_core) for _printf_core
    printf1.o(i.__0fprintf$1) refers to usart.o(i.fputc) for fputc
    printf1.o(i.__0printf$1) refers to printf1.o(i._printf_core) for _printf_core
    printf1.o(i.__0printf$1) refers to usart.o(i.fputc) for fputc
    printf1.o(i.__0printf$1) refers to stdout.o(.data) for __stdout
    printf1.o(i.__0snprintf$1) refers to printf1.o(i._printf_core) for _printf_core
    printf1.o(i.__0snprintf$1) refers to printf1.o(i._snputc) for _snputc
    printf1.o(i.__0sprintf$1) refers to printf1.o(i._printf_core) for _printf_core
    printf1.o(i.__0sprintf$1) refers to printf1.o(i._sputc) for _sputc
    printf1.o(i.__0vfprintf$1) refers to printf1.o(i._printf_core) for _printf_core
    printf1.o(i.__0vfprintf$1) refers to usart.o(i.fputc) for fputc
    printf1.o(i.__0vprintf$1) refers to printf1.o(i._printf_core) for _printf_core
    printf1.o(i.__0vprintf$1) refers to usart.o(i.fputc) for fputc
    printf1.o(i.__0vprintf$1) refers to stdout.o(.data) for __stdout
    printf1.o(i.__0vsnprintf$1) refers to printf1.o(i._printf_core) for _printf_core
    printf1.o(i.__0vsnprintf$1) refers to printf1.o(i._snputc) for _snputc
    printf1.o(i.__0vsprintf$1) refers to printf1.o(i._printf_core) for _printf_core
    printf1.o(i.__0vsprintf$1) refers to printf1.o(i._sputc) for _sputc
    printf1.o(i._printf_core) refers to uidiv.o(.text) for __aeabi_uidivmod
    printf2.o(i.__0fprintf$2) refers to printf2.o(i._printf_core) for _printf_core
    printf2.o(i.__0fprintf$2) refers to usart.o(i.fputc) for fputc
    printf2.o(i.__0printf$2) refers to printf2.o(i._printf_core) for _printf_core
    printf2.o(i.__0printf$2) refers to usart.o(i.fputc) for fputc
    printf2.o(i.__0printf$2) refers to stdout.o(.data) for __stdout
    printf2.o(i.__0snprintf$2) refers to printf2.o(i._printf_core) for _printf_core
    printf2.o(i.__0snprintf$2) refers to printf2.o(i._snputc) for _snputc
    printf2.o(i.__0sprintf$2) refers to printf2.o(i._printf_core) for _printf_core
    printf2.o(i.__0sprintf$2) refers to printf2.o(i._sputc) for _sputc
    printf2.o(i.__0vfprintf$2) refers to printf2.o(i._printf_core) for _printf_core
    printf2.o(i.__0vfprintf$2) refers to usart.o(i.fputc) for fputc
    printf2.o(i.__0vprintf$2) refers to printf2.o(i._printf_core) for _printf_core
    printf2.o(i.__0vprintf$2) refers to usart.o(i.fputc) for fputc
    printf2.o(i.__0vprintf$2) refers to stdout.o(.data) for __stdout
    printf2.o(i.__0vsnprintf$2) refers to printf2.o(i._printf_core) for _printf_core
    printf2.o(i.__0vsnprintf$2) refers to printf2.o(i._snputc) for _snputc
    printf2.o(i.__0vsprintf$2) refers to printf2.o(i._printf_core) for _printf_core
    printf2.o(i.__0vsprintf$2) refers to printf2.o(i._sputc) for _sputc
    printf3.o(i.__0fprintf$3) refers to printf3.o(i._printf_core) for _printf_core
    printf3.o(i.__0fprintf$3) refers to usart.o(i.fputc) for fputc
    printf3.o(i.__0printf$3) refers to printf3.o(i._printf_core) for _printf_core
    printf3.o(i.__0printf$3) refers to usart.o(i.fputc) for fputc
    printf3.o(i.__0printf$3) refers to stdout.o(.data) for __stdout
    printf3.o(i.__0snprintf$3) refers to printf3.o(i._printf_core) for _printf_core
    printf3.o(i.__0snprintf$3) refers to printf3.o(i._snputc) for _snputc
    printf3.o(i.__0sprintf$3) refers to printf3.o(i._printf_core) for _printf_core
    printf3.o(i.__0sprintf$3) refers to printf3.o(i._sputc) for _sputc
    printf3.o(i.__0vfprintf$3) refers to printf3.o(i._printf_core) for _printf_core
    printf3.o(i.__0vfprintf$3) refers to usart.o(i.fputc) for fputc
    printf3.o(i.__0vprintf$3) refers to printf3.o(i._printf_core) for _printf_core
    printf3.o(i.__0vprintf$3) refers to usart.o(i.fputc) for fputc
    printf3.o(i.__0vprintf$3) refers to stdout.o(.data) for __stdout
    printf3.o(i.__0vsnprintf$3) refers to printf3.o(i._printf_core) for _printf_core
    printf3.o(i.__0vsnprintf$3) refers to printf3.o(i._snputc) for _snputc
    printf3.o(i.__0vsprintf$3) refers to printf3.o(i._printf_core) for _printf_core
    printf3.o(i.__0vsprintf$3) refers to printf3.o(i._sputc) for _sputc
    printf3.o(i._printf_core) refers to uidiv.o(.text) for __aeabi_uidivmod
    printf4.o(i.__0fprintf$4) refers to printf4.o(i._printf_core) for _printf_core
    printf4.o(i.__0fprintf$4) refers to usart.o(i.fputc) for fputc
    printf4.o(i.__0printf$4) refers to printf4.o(i._printf_core) for _printf_core
    printf4.o(i.__0printf$4) refers to usart.o(i.fputc) for fputc
    printf4.o(i.__0printf$4) refers to stdout.o(.data) for __stdout
    printf4.o(i.__0snprintf$4) refers to printf4.o(i._printf_core) for _printf_core
    printf4.o(i.__0snprintf$4) refers to printf4.o(i._snputc) for _snputc
    printf4.o(i.__0sprintf$4) refers to printf4.o(i._printf_core) for _printf_core
    printf4.o(i.__0sprintf$4) refers to printf4.o(i._sputc) for _sputc
    printf4.o(i.__0vfprintf$4) refers to printf4.o(i._printf_core) for _printf_core
    printf4.o(i.__0vfprintf$4) refers to usart.o(i.fputc) for fputc
    printf4.o(i.__0vprintf$4) refers to printf4.o(i._printf_core) for _printf_core
    printf4.o(i.__0vprintf$4) refers to usart.o(i.fputc) for fputc
    printf4.o(i.__0vprintf$4) refers to stdout.o(.data) for __stdout
    printf4.o(i.__0vsnprintf$4) refers to printf4.o(i._printf_core) for _printf_core
    printf4.o(i.__0vsnprintf$4) refers to printf4.o(i._snputc) for _snputc
    printf4.o(i.__0vsprintf$4) refers to printf4.o(i._printf_core) for _printf_core
    printf4.o(i.__0vsprintf$4) refers to printf4.o(i._sputc) for _sputc
    printf4.o(i._printf_core) refers to uldiv.o(.text) for __aeabi_uldivmod
    printf5.o(i.__0fprintf$5) refers to printf5.o(i._printf_core) for _printf_core
    printf5.o(i.__0fprintf$5) refers to usart.o(i.fputc) for fputc
    printf5.o(i.__0printf$5) refers to printf5.o(i._printf_core) for _printf_core
    printf5.o(i.__0printf$5) refers to usart.o(i.fputc) for fputc
    printf5.o(i.__0printf$5) refers to stdout.o(.data) for __stdout
    printf5.o(i.__0snprintf$5) refers to printf5.o(i._printf_core) for _printf_core
    printf5.o(i.__0snprintf$5) refers to printf5.o(i._snputc) for _snputc
    printf5.o(i.__0sprintf$5) refers to printf5.o(i._printf_core) for _printf_core
    printf5.o(i.__0sprintf$5) refers to printf5.o(i._sputc) for _sputc
    printf5.o(i.__0vfprintf$5) refers to printf5.o(i._printf_core) for _printf_core
    printf5.o(i.__0vfprintf$5) refers to usart.o(i.fputc) for fputc
    printf5.o(i.__0vprintf$5) refers to printf5.o(i._printf_core) for _printf_core
    printf5.o(i.__0vprintf$5) refers to usart.o(i.fputc) for fputc
    printf5.o(i.__0vprintf$5) refers to stdout.o(.data) for __stdout
    printf5.o(i.__0vsnprintf$5) refers to printf5.o(i._printf_core) for _printf_core
    printf5.o(i.__0vsnprintf$5) refers to printf5.o(i._snputc) for _snputc
    printf5.o(i.__0vsprintf$5) refers to printf5.o(i._printf_core) for _printf_core
    printf5.o(i.__0vsprintf$5) refers to printf5.o(i._sputc) for _sputc
    printf5.o(i._printf_core) refers to uldiv.o(.text) for __aeabi_uldivmod
    printf6.o(i.__0fprintf$6) refers to printf6.o(i._printf_core) for _printf_core
    printf6.o(i.__0fprintf$6) refers to usart.o(i.fputc) for fputc
    printf6.o(i.__0printf$6) refers to printf6.o(i._printf_core) for _printf_core
    printf6.o(i.__0printf$6) refers to usart.o(i.fputc) for fputc
    printf6.o(i.__0printf$6) refers to stdout.o(.data) for __stdout
    printf6.o(i.__0snprintf$6) refers to printf6.o(i._printf_core) for _printf_core
    printf6.o(i.__0snprintf$6) refers to printf6.o(i._snputc) for _snputc
    printf6.o(i.__0sprintf$6) refers to printf6.o(i._printf_core) for _printf_core
    printf6.o(i.__0sprintf$6) refers to printf6.o(i._sputc) for _sputc
    printf6.o(i.__0vfprintf$6) refers to printf6.o(i._printf_core) for _printf_core
    printf6.o(i.__0vfprintf$6) refers to usart.o(i.fputc) for fputc
    printf6.o(i.__0vprintf$6) refers to printf6.o(i._printf_core) for _printf_core
    printf6.o(i.__0vprintf$6) refers to usart.o(i.fputc) for fputc
    printf6.o(i.__0vprintf$6) refers to stdout.o(.data) for __stdout
    printf6.o(i.__0vsnprintf$6) refers to printf6.o(i._printf_core) for _printf_core
    printf6.o(i.__0vsnprintf$6) refers to printf6.o(i._snputc) for _snputc
    printf6.o(i.__0vsprintf$6) refers to printf6.o(i._printf_core) for _printf_core
    printf6.o(i.__0vsprintf$6) refers to printf6.o(i._sputc) for _sputc
    printf6.o(i._printf_core) refers to printf6.o(i._printf_pre_padding) for _printf_pre_padding
    printf6.o(i._printf_core) refers to uidiv.o(.text) for __aeabi_uidivmod
    printf6.o(i._printf_core) refers to printf6.o(i._printf_post_padding) for _printf_post_padding
    printf7.o(i.__0fprintf$7) refers to printf7.o(i._printf_core) for _printf_core
    printf7.o(i.__0fprintf$7) refers to usart.o(i.fputc) for fputc
    printf7.o(i.__0printf$7) refers to printf7.o(i._printf_core) for _printf_core
    printf7.o(i.__0printf$7) refers to usart.o(i.fputc) for fputc
    printf7.o(i.__0printf$7) refers to stdout.o(.data) for __stdout
    printf7.o(i.__0snprintf$7) refers to printf7.o(i._printf_core) for _printf_core
    printf7.o(i.__0snprintf$7) refers to printf7.o(i._snputc) for _snputc
    printf7.o(i.__0sprintf$7) refers to printf7.o(i._printf_core) for _printf_core
    printf7.o(i.__0sprintf$7) refers to printf7.o(i._sputc) for _sputc
    printf7.o(i.__0vfprintf$7) refers to printf7.o(i._printf_core) for _printf_core
    printf7.o(i.__0vfprintf$7) refers to usart.o(i.fputc) for fputc
    printf7.o(i.__0vprintf$7) refers to printf7.o(i._printf_core) for _printf_core
    printf7.o(i.__0vprintf$7) refers to usart.o(i.fputc) for fputc
    printf7.o(i.__0vprintf$7) refers to stdout.o(.data) for __stdout
    printf7.o(i.__0vsnprintf$7) refers to printf7.o(i._printf_core) for _printf_core
    printf7.o(i.__0vsnprintf$7) refers to printf7.o(i._snputc) for _snputc
    printf7.o(i.__0vsprintf$7) refers to printf7.o(i._printf_core) for _printf_core
    printf7.o(i.__0vsprintf$7) refers to printf7.o(i._sputc) for _sputc
    printf7.o(i._printf_core) refers to printf7.o(i._printf_pre_padding) for _printf_pre_padding
    printf7.o(i._printf_core) refers to uldiv.o(.text) for __aeabi_uldivmod
    printf7.o(i._printf_core) refers to printf7.o(i._printf_post_padding) for _printf_post_padding
    printf8.o(i.__0fprintf$8) refers to printf8.o(i._printf_core) for _printf_core
    printf8.o(i.__0fprintf$8) refers to usart.o(i.fputc) for fputc
    printf8.o(i.__0printf$8) refers to printf8.o(i._printf_core) for _printf_core
    printf8.o(i.__0printf$8) refers to usart.o(i.fputc) for fputc
    printf8.o(i.__0printf$8) refers to stdout.o(.data) for __stdout
    printf8.o(i.__0snprintf$8) refers to printf8.o(i._printf_core) for _printf_core
    printf8.o(i.__0snprintf$8) refers to printf8.o(i._snputc) for _snputc
    printf8.o(i.__0sprintf$8) refers to printf8.o(i._printf_core) for _printf_core
    printf8.o(i.__0sprintf$8) refers to printf8.o(i._sputc) for _sputc
    printf8.o(i.__0vfprintf$8) refers to printf8.o(i._printf_core) for _printf_core
    printf8.o(i.__0vfprintf$8) refers to usart.o(i.fputc) for fputc
    printf8.o(i.__0vprintf$8) refers to printf8.o(i._printf_core) for _printf_core
    printf8.o(i.__0vprintf$8) refers to usart.o(i.fputc) for fputc
    printf8.o(i.__0vprintf$8) refers to stdout.o(.data) for __stdout
    printf8.o(i.__0vsnprintf$8) refers to printf8.o(i._printf_core) for _printf_core
    printf8.o(i.__0vsnprintf$8) refers to printf8.o(i._snputc) for _snputc
    printf8.o(i.__0vsprintf$8) refers to printf8.o(i._printf_core) for _printf_core
    printf8.o(i.__0vsprintf$8) refers to printf8.o(i._sputc) for _sputc
    printf8.o(i._printf_core) refers to printf8.o(i._printf_pre_padding) for _printf_pre_padding
    printf8.o(i._printf_core) refers to uldiv.o(.text) for __aeabi_uldivmod
    printf8.o(i._printf_core) refers to printf8.o(i._printf_post_padding) for _printf_post_padding
    printfa.o(i.__0fprintf) refers (Special) to iusefp.o(.text) for __I$use$fp
    printfa.o(i.__0fprintf) refers to printfa.o(i._printf_core) for _printf_core
    printfa.o(i.__0fprintf) refers to usart.o(i.fputc) for fputc
    printfa.o(i.__0printf) refers (Special) to iusefp.o(.text) for __I$use$fp
    printfa.o(i.__0printf) refers to printfa.o(i._printf_core) for _printf_core
    printfa.o(i.__0printf) refers to usart.o(i.fputc) for fputc
    printfa.o(i.__0printf) refers to stdout.o(.data) for __stdout
    printfa.o(i.__0snprintf) refers (Special) to iusefp.o(.text) for __I$use$fp
    printfa.o(i.__0snprintf) refers to printfa.o(i._printf_core) for _printf_core
    printfa.o(i.__0snprintf) refers to printfa.o(i._snputc) for _snputc
    printfa.o(i.__0sprintf) refers (Special) to iusefp.o(.text) for __I$use$fp
    printfa.o(i.__0sprintf) refers to printfa.o(i._printf_core) for _printf_core
    printfa.o(i.__0sprintf) refers to printfa.o(i._sputc) for _sputc
    printfa.o(i.__0vfprintf) refers (Special) to iusefp.o(.text) for __I$use$fp
    printfa.o(i.__0vfprintf) refers to printfa.o(i._printf_core) for _printf_core
    printfa.o(i.__0vfprintf) refers to usart.o(i.fputc) for fputc
    printfa.o(i.__0vprintf) refers (Special) to iusefp.o(.text) for __I$use$fp
    printfa.o(i.__0vprintf) refers to printfa.o(i._printf_core) for _printf_core
    printfa.o(i.__0vprintf) refers to usart.o(i.fputc) for fputc
    printfa.o(i.__0vprintf) refers to stdout.o(.data) for __stdout
    printfa.o(i.__0vsnprintf) refers (Special) to iusefp.o(.text) for __I$use$fp
    printfa.o(i.__0vsnprintf) refers to printfa.o(i._printf_core) for _printf_core
    printfa.o(i.__0vsnprintf) refers to printfa.o(i._snputc) for _snputc
    printfa.o(i.__0vsprintf) refers (Special) to iusefp.o(.text) for __I$use$fp
    printfa.o(i.__0vsprintf) refers to printfa.o(i._printf_core) for _printf_core
    printfa.o(i.__0vsprintf) refers to printfa.o(i._sputc) for _sputc
    printfa.o(i._fp_digits) refers (Special) to iusefp.o(.text) for __I$use$fp
    printfa.o(i._fp_digits) refers to dmul.o(.text) for __aeabi_dmul
    printfa.o(i._fp_digits) refers to ddiv.o(.text) for __aeabi_ddiv
    printfa.o(i._fp_digits) refers to cdrcmple.o(.text) for __aeabi_cdrcmple
    printfa.o(i._fp_digits) refers to dadd.o(.text) for __aeabi_dadd
    printfa.o(i._fp_digits) refers to dfixul.o(.text) for __aeabi_d2ulz
    printfa.o(i._fp_digits) refers to uldiv.o(.text) for __aeabi_uldivmod
    printfa.o(i._printf_core) refers (Special) to iusefp.o(.text) for __I$use$fp
    printfa.o(i._printf_core) refers to printfa.o(i._printf_pre_padding) for _printf_pre_padding
    printfa.o(i._printf_core) refers to uldiv.o(.text) for __aeabi_uldivmod
    printfa.o(i._printf_core) refers to printfa.o(i._printf_post_padding) for _printf_post_padding
    printfa.o(i._printf_core) refers to printfa.o(i._fp_digits) for _fp_digits
    printfa.o(i._printf_core) refers to uidiv.o(.text) for __aeabi_uidivmod
    printfa.o(i._printf_post_padding) refers (Special) to iusefp.o(.text) for __I$use$fp
    printfa.o(i._printf_pre_padding) refers (Special) to iusefp.o(.text) for __I$use$fp
    printfa.o(i._snputc) refers (Special) to iusefp.o(.text) for __I$use$fp
    printfa.o(i._sputc) refers (Special) to iusefp.o(.text) for __I$use$fp
    malloc.o(i.free) refers to mvars.o(.data) for __microlib_freelist
    malloc.o(i.malloc) refers to mvars.o(.data) for __microlib_freelist_initialised
    malloc.o(i.malloc) refers to mvars.o(.data) for __microlib_freelist
    malloc.o(i.malloc) refers to startup_stm32f407xx.o(HEAP) for __heap_base
    mallocr.o(i.__free$realloc) refers to mvars.o(.data) for __microlib_freelist
    mallocr.o(i.__malloc$realloc) refers to mallocr.o(i.internal_alloc) for internal_alloc
    mallocr.o(i.__malloc$realloc) refers to mvars.o(.data) for __microlib_freelist_initialised
    mallocr.o(i.__malloc$realloc) refers to startup_stm32f407xx.o(HEAP) for __heap_base
    mallocr.o(i.__malloc$realloc) refers to mvars.o(.data) for __microlib_freelist
    mallocr.o(i.internal_alloc) refers to memmovea.o(.text) for __aeabi_memcpy
    mallocr.o(i.internal_alloc) refers to mvars.o(.data) for __microlib_freelist
    mallocr.o(i.realloc) refers to mallocr.o(i.__free$realloc) for __free$realloc
    mallocr.o(i.realloc) refers to mallocr.o(i.internal_alloc) for internal_alloc
    mallocr.o(i.realloc) refers to mallocr.o(i.__malloc$realloc) for __malloc$realloc
    mallocr.o(i.realloc) refers to mvars.o(.data) for __microlib_freelist
    malloca.o(i.__aligned_malloc) refers to mvars.o(.data) for __microlib_freelist_initialised
    malloca.o(i.__aligned_malloc) refers to mvars.o(.data) for __microlib_freelist
    malloca.o(i.__aligned_malloc) refers to startup_stm32f407xx.o(HEAP) for __heap_base
    malloca.o(i.__free$memalign) refers to mvars.o(.data) for __microlib_freelist
    malloca.o(i.__malloc$memalign) refers to malloca.o(i.__aligned_malloc) for __aligned_malloc
    mallocra.o(i.__aligned_malloc$realloc) refers to mallocra.o(i.internal_alloc) for internal_alloc
    mallocra.o(i.__aligned_malloc$realloc) refers to mvars.o(.data) for __microlib_freelist_initialised
    mallocra.o(i.__aligned_malloc$realloc) refers to startup_stm32f407xx.o(HEAP) for __heap_base
    mallocra.o(i.__aligned_malloc$realloc) refers to mvars.o(.data) for __microlib_freelist
    mallocra.o(i.__free$realloc$memalign) refers to mvars.o(.data) for __microlib_freelist
    mallocra.o(i.__malloc$realloc$memalign) refers to mallocra.o(i.__aligned_malloc$realloc) for __aligned_malloc$realloc
    mallocra.o(i.__realloc$memalign) refers to mallocra.o(i.__free$realloc$memalign) for __free$realloc$memalign
    mallocra.o(i.__realloc$memalign) refers to mallocra.o(i.internal_alloc) for internal_alloc
    mallocra.o(i.__realloc$memalign) refers to mallocra.o(i.__malloc$realloc$memalign) for __malloc$realloc$memalign
    mallocra.o(i.__realloc$memalign) refers to mvars.o(.data) for __microlib_freelist
    mallocra.o(i.internal_alloc) refers to memmovea.o(.text) for __aeabi_memcpy
    mallocra.o(i.internal_alloc) refers to mvars.o(.data) for __microlib_freelist
    calloc.o(.text) refers to malloc.o(i.malloc) for malloc
    entry2.o(.ARM.Collect$$$$00000001) refers to entry2.o(.ARM.Collect$$$$00002712) for __lit__00000000
    entry2.o(.ARM.Collect$$$$00002712) refers to startup_stm32f407xx.o(STACK) for __initial_sp
    entry2.o(__vectab_stack_and_reset_area) refers to startup_stm32f407xx.o(STACK) for __initial_sp
    entry2.o(__vectab_stack_and_reset_area) refers to entry.o(.ARM.Collect$$$$00000000) for __main
    entry5.o(.ARM.Collect$$$$00000004) refers to init.o(.text) for __scatterload
    entry9a.o(.ARM.Collect$$$$0000000B) refers to main.o(i.main) for main
    entry9b.o(.ARM.Collect$$$$0000000C) refers to main.o(i.main) for main
    dadd.o(.text) refers to llshl.o(.text) for __aeabi_llsl
    dadd.o(.text) refers to llsshr.o(.text) for __aeabi_lasr
    dadd.o(.text) refers to depilogue.o(.text) for _double_epilogue
    dmul.o(.text) refers to depilogue.o(.text) for _double_epilogue
    ddiv.o(.text) refers to depilogue.o(.text) for _double_round
    dfixul.o(.text) refers to llushr.o(.text) for __aeabi_llsr
    dfixul.o(.text) refers to llshl.o(.text) for __aeabi_llsl
    init.o(.text) refers to entry5.o(.ARM.Collect$$$$00000004) for __main_after_scatterload
    depilogue.o(.text) refers to llshl.o(.text) for __aeabi_llsl
    depilogue.o(.text) refers to llushr.o(.text) for __aeabi_llsr


==============================================================================

Removing Unused input sections from the image.

    Removing main.o(.rev16_text), (4 bytes).
    Removing main.o(.revsh_text), (4 bytes).
    Removing main.o(.rrx_text), (6 bytes).
    Removing main.o(.constdata), (20 bytes).
    Removing gpio.o(.rev16_text), (4 bytes).
    Removing gpio.o(.revsh_text), (4 bytes).
    Removing gpio.o(.rrx_text), (6 bytes).
    Removing can.o(.rev16_text), (4 bytes).
    Removing can.o(.revsh_text), (4 bytes).
    Removing can.o(.rrx_text), (6 bytes).
    Removing can.o(i.HAL_CAN_MspDeInit), (68 bytes).
    Removing tim.o(.rev16_text), (4 bytes).
    Removing tim.o(.revsh_text), (4 bytes).
    Removing tim.o(.rrx_text), (6 bytes).
    Removing tim.o(i.HAL_TIM_Base_MspDeInit), (40 bytes).
    Removing usart.o(.rev16_text), (4 bytes).
    Removing usart.o(.revsh_text), (4 bytes).
    Removing usart.o(.rrx_text), (6 bytes).
    Removing usart.o(i.HAL_UART_MspDeInit), (56 bytes).
    Removing usart.o(i.fgetc), (32 bytes).
    Removing stm32f4xx_it.o(.rev16_text), (4 bytes).
    Removing stm32f4xx_it.o(.revsh_text), (4 bytes).
    Removing stm32f4xx_it.o(.rrx_text), (6 bytes).
    Removing stm32f4xx_hal_msp.o(.rev16_text), (4 bytes).
    Removing stm32f4xx_hal_msp.o(.revsh_text), (4 bytes).
    Removing stm32f4xx_hal_msp.o(.rrx_text), (6 bytes).
    Removing stm32f4xx_hal_timebase_tim.o(.rev16_text), (4 bytes).
    Removing stm32f4xx_hal_timebase_tim.o(.revsh_text), (4 bytes).
    Removing stm32f4xx_hal_timebase_tim.o(.rrx_text), (6 bytes).
    Removing stm32f4xx_hal_timebase_tim.o(i.HAL_ResumeTick), (24 bytes).
    Removing stm32f4xx_hal_timebase_tim.o(i.HAL_SuspendTick), (24 bytes).
    Removing stm32f4xx_hal_can.o(.rev16_text), (4 bytes).
    Removing stm32f4xx_hal_can.o(.revsh_text), (4 bytes).
    Removing stm32f4xx_hal_can.o(.rrx_text), (6 bytes).
    Removing stm32f4xx_hal_can.o(i.HAL_CAN_AbortTxRequest), (86 bytes).
    Removing stm32f4xx_hal_can.o(i.HAL_CAN_DeInit), (46 bytes).
    Removing stm32f4xx_hal_can.o(i.HAL_CAN_DeactivateNotification), (42 bytes).
    Removing stm32f4xx_hal_can.o(i.HAL_CAN_GetError), (6 bytes).
    Removing stm32f4xx_hal_can.o(i.HAL_CAN_GetRxFifoFillLevel), (40 bytes).
    Removing stm32f4xx_hal_can.o(i.HAL_CAN_GetState), (42 bytes).
    Removing stm32f4xx_hal_can.o(i.HAL_CAN_GetTxTimestamp), (42 bytes).
    Removing stm32f4xx_hal_can.o(i.HAL_CAN_IsSleepActive), (30 bytes).
    Removing stm32f4xx_hal_can.o(i.HAL_CAN_IsTxMessagePending), (36 bytes).
    Removing stm32f4xx_hal_can.o(i.HAL_CAN_MspDeInit), (2 bytes).
    Removing stm32f4xx_hal_can.o(i.HAL_CAN_MspInit), (2 bytes).
    Removing stm32f4xx_hal_can.o(i.HAL_CAN_RequestSleep), (42 bytes).
    Removing stm32f4xx_hal_can.o(i.HAL_CAN_ResetError), (34 bytes).
    Removing stm32f4xx_hal_can.o(i.HAL_CAN_RxFifo0MsgPendingCallback), (2 bytes).
    Removing stm32f4xx_hal_can.o(i.HAL_CAN_RxFifo1MsgPendingCallback), (2 bytes).
    Removing stm32f4xx_hal_can.o(i.HAL_CAN_TxMailbox0CompleteCallback), (2 bytes).
    Removing stm32f4xx_hal_can.o(i.HAL_CAN_TxMailbox1CompleteCallback), (2 bytes).
    Removing stm32f4xx_hal_can.o(i.HAL_CAN_TxMailbox2CompleteCallback), (2 bytes).
    Removing stm32f4xx_hal_can.o(i.HAL_CAN_WakeUp), (92 bytes).
    Removing stm32f4xx_hal_rcc.o(.rev16_text), (4 bytes).
    Removing stm32f4xx_hal_rcc.o(.revsh_text), (4 bytes).
    Removing stm32f4xx_hal_rcc.o(.rrx_text), (6 bytes).
    Removing stm32f4xx_hal_rcc.o(i.HAL_RCC_CSSCallback), (2 bytes).
    Removing stm32f4xx_hal_rcc.o(i.HAL_RCC_DeInit), (4 bytes).
    Removing stm32f4xx_hal_rcc.o(i.HAL_RCC_DisableCSS), (12 bytes).
    Removing stm32f4xx_hal_rcc.o(i.HAL_RCC_EnableCSS), (12 bytes).
    Removing stm32f4xx_hal_rcc.o(i.HAL_RCC_GetOscConfig), (244 bytes).
    Removing stm32f4xx_hal_rcc.o(i.HAL_RCC_MCOConfig), (192 bytes).
    Removing stm32f4xx_hal_rcc.o(i.HAL_RCC_NMI_IRQHandler), (32 bytes).
    Removing stm32f4xx_hal_rcc_ex.o(.rev16_text), (4 bytes).
    Removing stm32f4xx_hal_rcc_ex.o(.revsh_text), (4 bytes).
    Removing stm32f4xx_hal_rcc_ex.o(.rrx_text), (6 bytes).
    Removing stm32f4xx_hal_rcc_ex.o(i.HAL_RCCEx_DisablePLLI2S), (56 bytes).
    Removing stm32f4xx_hal_rcc_ex.o(i.HAL_RCCEx_EnablePLLI2S), (112 bytes).
    Removing stm32f4xx_hal_rcc_ex.o(i.HAL_RCCEx_GetPeriphCLKConfig), (56 bytes).
    Removing stm32f4xx_hal_rcc_ex.o(i.HAL_RCCEx_GetPeriphCLKFreq), (144 bytes).
    Removing stm32f4xx_hal_rcc_ex.o(i.HAL_RCCEx_PeriphCLKConfig), (416 bytes).
    Removing stm32f4xx_hal_rcc_ex.o(i.HAL_RCC_DeInit), (384 bytes).
    Removing stm32f4xx_hal_flash.o(.rev16_text), (4 bytes).
    Removing stm32f4xx_hal_flash.o(.revsh_text), (4 bytes).
    Removing stm32f4xx_hal_flash.o(.rrx_text), (6 bytes).
    Removing stm32f4xx_hal_flash.o(i.FLASH_Program_Byte), (36 bytes).
    Removing stm32f4xx_hal_flash.o(i.FLASH_Program_DoubleWord), (60 bytes).
    Removing stm32f4xx_hal_flash.o(i.FLASH_Program_HalfWord), (40 bytes).
    Removing stm32f4xx_hal_flash.o(i.FLASH_Program_Word), (40 bytes).
    Removing stm32f4xx_hal_flash.o(i.FLASH_SetErrorCode), (152 bytes).
    Removing stm32f4xx_hal_flash.o(i.FLASH_WaitForLastOperation), (100 bytes).
    Removing stm32f4xx_hal_flash.o(i.HAL_FLASH_EndOfOperationCallback), (2 bytes).
    Removing stm32f4xx_hal_flash.o(i.HAL_FLASH_GetError), (12 bytes).
    Removing stm32f4xx_hal_flash.o(i.HAL_FLASH_IRQHandler), (272 bytes).
    Removing stm32f4xx_hal_flash.o(i.HAL_FLASH_Lock), (20 bytes).
    Removing stm32f4xx_hal_flash.o(i.HAL_FLASH_OB_Launch), (28 bytes).
    Removing stm32f4xx_hal_flash.o(i.HAL_FLASH_OB_Lock), (20 bytes).
    Removing stm32f4xx_hal_flash.o(i.HAL_FLASH_OB_Unlock), (44 bytes).
    Removing stm32f4xx_hal_flash.o(i.HAL_FLASH_OperationErrorCallback), (2 bytes).
    Removing stm32f4xx_hal_flash.o(i.HAL_FLASH_Program), (152 bytes).
    Removing stm32f4xx_hal_flash.o(i.HAL_FLASH_Program_IT), (136 bytes).
    Removing stm32f4xx_hal_flash.o(i.HAL_FLASH_Unlock), (52 bytes).
    Removing stm32f4xx_hal_flash.o(.bss), (32 bytes).
    Removing stm32f4xx_hal_flash_ex.o(.rev16_text), (4 bytes).
    Removing stm32f4xx_hal_flash_ex.o(.revsh_text), (4 bytes).
    Removing stm32f4xx_hal_flash_ex.o(.rrx_text), (6 bytes).
    Removing stm32f4xx_hal_flash_ex.o(i.FLASH_Erase_Sector), (92 bytes).
    Removing stm32f4xx_hal_flash_ex.o(i.FLASH_FlushCaches), (120 bytes).
    Removing stm32f4xx_hal_flash_ex.o(i.FLASH_MassErase), (48 bytes).
    Removing stm32f4xx_hal_flash_ex.o(i.FLASH_OB_BOR_LevelConfig), (32 bytes).
    Removing stm32f4xx_hal_flash_ex.o(i.FLASH_OB_DisableWRP), (40 bytes).
    Removing stm32f4xx_hal_flash_ex.o(i.FLASH_OB_EnableWRP), (40 bytes).
    Removing stm32f4xx_hal_flash_ex.o(i.FLASH_OB_GetBOR), (16 bytes).
    Removing stm32f4xx_hal_flash_ex.o(i.FLASH_OB_GetRDP), (36 bytes).
    Removing stm32f4xx_hal_flash_ex.o(i.FLASH_OB_GetUser), (16 bytes).
    Removing stm32f4xx_hal_flash_ex.o(i.FLASH_OB_GetWRP), (12 bytes).
    Removing stm32f4xx_hal_flash_ex.o(i.FLASH_OB_RDP_LevelConfig), (32 bytes).
    Removing stm32f4xx_hal_flash_ex.o(i.FLASH_OB_UserConfig), (60 bytes).
    Removing stm32f4xx_hal_flash_ex.o(i.HAL_FLASHEx_Erase), (172 bytes).
    Removing stm32f4xx_hal_flash_ex.o(i.HAL_FLASHEx_Erase_IT), (120 bytes).
    Removing stm32f4xx_hal_flash_ex.o(i.HAL_FLASHEx_OBGetConfig), (34 bytes).
    Removing stm32f4xx_hal_flash_ex.o(i.HAL_FLASHEx_OBProgram), (148 bytes).
    Removing stm32f4xx_hal_flash_ramfunc.o(.rev16_text), (4 bytes).
    Removing stm32f4xx_hal_flash_ramfunc.o(.revsh_text), (4 bytes).
    Removing stm32f4xx_hal_flash_ramfunc.o(.rrx_text), (6 bytes).
    Removing stm32f4xx_hal_gpio.o(.rev16_text), (4 bytes).
    Removing stm32f4xx_hal_gpio.o(.revsh_text), (4 bytes).
    Removing stm32f4xx_hal_gpio.o(.rrx_text), (6 bytes).
    Removing stm32f4xx_hal_gpio.o(i.HAL_GPIO_DeInit), (356 bytes).
    Removing stm32f4xx_hal_gpio.o(i.HAL_GPIO_EXTI_Callback), (2 bytes).
    Removing stm32f4xx_hal_gpio.o(i.HAL_GPIO_LockPin), (46 bytes).
    Removing stm32f4xx_hal_gpio.o(i.HAL_GPIO_TogglePin), (20 bytes).
    Removing stm32f4xx_hal_dma_ex.o(.rev16_text), (4 bytes).
    Removing stm32f4xx_hal_dma_ex.o(.revsh_text), (4 bytes).
    Removing stm32f4xx_hal_dma_ex.o(.rrx_text), (6 bytes).
    Removing stm32f4xx_hal_dma_ex.o(i.DMA_MultiBufferSetConfig), (32 bytes).
    Removing stm32f4xx_hal_dma_ex.o(i.HAL_DMAEx_ChangeMemory), (18 bytes).
    Removing stm32f4xx_hal_dma_ex.o(i.HAL_DMAEx_MultiBufferStart), (124 bytes).
    Removing stm32f4xx_hal_dma_ex.o(i.HAL_DMAEx_MultiBufferStart_IT), (4056 bytes).
    Removing stm32f4xx_hal_dma.o(.rev16_text), (4 bytes).
    Removing stm32f4xx_hal_dma.o(.revsh_text), (4 bytes).
    Removing stm32f4xx_hal_dma.o(.rrx_text), (6 bytes).
    Removing stm32f4xx_hal_dma.o(i.DMA_CalcBaseAndBitshift), (52 bytes).
    Removing stm32f4xx_hal_dma.o(i.DMA_CheckFifoParam), (170 bytes).
    Removing stm32f4xx_hal_dma.o(i.DMA_SetConfig), (44 bytes).
    Removing stm32f4xx_hal_dma.o(i.HAL_DMA_DeInit), (112 bytes).
    Removing stm32f4xx_hal_dma.o(i.HAL_DMA_GetError), (6 bytes).
    Removing stm32f4xx_hal_dma.o(i.HAL_DMA_GetState), (8 bytes).
    Removing stm32f4xx_hal_dma.o(i.HAL_DMA_IRQHandler), (576 bytes).
    Removing stm32f4xx_hal_dma.o(i.HAL_DMA_Init), (236 bytes).
    Removing stm32f4xx_hal_dma.o(i.HAL_DMA_PollForTransfer), (346 bytes).
    Removing stm32f4xx_hal_dma.o(i.HAL_DMA_RegisterCallback), (94 bytes).
    Removing stm32f4xx_hal_dma.o(i.HAL_DMA_Start), (102 bytes).
    Removing stm32f4xx_hal_dma.o(i.HAL_DMA_Start_IT), (146 bytes).
    Removing stm32f4xx_hal_dma.o(i.HAL_DMA_UnRegisterCallback), (124 bytes).
    Removing stm32f4xx_hal_dma.o(.constdata), (8 bytes).
    Removing stm32f4xx_hal_pwr.o(.rev16_text), (4 bytes).
    Removing stm32f4xx_hal_pwr.o(.revsh_text), (4 bytes).
    Removing stm32f4xx_hal_pwr.o(.rrx_text), (6 bytes).
    Removing stm32f4xx_hal_pwr.o(i.HAL_PWR_ConfigPVD), (180 bytes).
    Removing stm32f4xx_hal_pwr.o(i.HAL_PWR_DeInit), (28 bytes).
    Removing stm32f4xx_hal_pwr.o(i.HAL_PWR_DisableBkUpAccess), (28 bytes).
    Removing stm32f4xx_hal_pwr.o(i.HAL_PWR_DisablePVD), (12 bytes).
    Removing stm32f4xx_hal_pwr.o(i.HAL_PWR_DisableSEVOnPend), (20 bytes).
    Removing stm32f4xx_hal_pwr.o(i.HAL_PWR_DisableSleepOnExit), (20 bytes).
    Removing stm32f4xx_hal_pwr.o(i.HAL_PWR_DisableWakeUpPin), (16 bytes).
    Removing stm32f4xx_hal_pwr.o(i.HAL_PWR_EnableBkUpAccess), (28 bytes).
    Removing stm32f4xx_hal_pwr.o(i.HAL_PWR_EnablePVD), (12 bytes).
    Removing stm32f4xx_hal_pwr.o(i.HAL_PWR_EnableSEVOnPend), (20 bytes).
    Removing stm32f4xx_hal_pwr.o(i.HAL_PWR_EnableSleepOnExit), (20 bytes).
    Removing stm32f4xx_hal_pwr.o(i.HAL_PWR_EnableWakeUpPin), (16 bytes).
    Removing stm32f4xx_hal_pwr.o(i.HAL_PWR_EnterSLEEPMode), (32 bytes).
    Removing stm32f4xx_hal_pwr.o(i.HAL_PWR_EnterSTANDBYMode), (40 bytes).
    Removing stm32f4xx_hal_pwr.o(i.HAL_PWR_EnterSTOPMode), (64 bytes).
    Removing stm32f4xx_hal_pwr.o(i.HAL_PWR_PVDCallback), (2 bytes).
    Removing stm32f4xx_hal_pwr.o(i.HAL_PWR_PVD_IRQHandler), (32 bytes).
    Removing stm32f4xx_hal_pwr_ex.o(.rev16_text), (4 bytes).
    Removing stm32f4xx_hal_pwr_ex.o(.revsh_text), (4 bytes).
    Removing stm32f4xx_hal_pwr_ex.o(.rrx_text), (6 bytes).
    Removing stm32f4xx_hal_pwr_ex.o(i.HAL_PWREx_ControlVoltageScaling), (120 bytes).
    Removing stm32f4xx_hal_pwr_ex.o(i.HAL_PWREx_DisableBkUpReg), (60 bytes).
    Removing stm32f4xx_hal_pwr_ex.o(i.HAL_PWREx_DisableFlashPowerDown), (12 bytes).
    Removing stm32f4xx_hal_pwr_ex.o(i.HAL_PWREx_EnableBkUpReg), (60 bytes).
    Removing stm32f4xx_hal_pwr_ex.o(i.HAL_PWREx_EnableFlashPowerDown), (12 bytes).
    Removing stm32f4xx_hal_pwr_ex.o(i.HAL_PWREx_GetVoltageRange), (16 bytes).
    Removing stm32f4xx_hal_cortex.o(.rev16_text), (4 bytes).
    Removing stm32f4xx_hal_cortex.o(.revsh_text), (4 bytes).
    Removing stm32f4xx_hal_cortex.o(.rrx_text), (6 bytes).
    Removing stm32f4xx_hal_cortex.o(i.HAL_MPU_ConfigRegion), (92 bytes).
    Removing stm32f4xx_hal_cortex.o(i.HAL_MPU_Disable), (44 bytes).
    Removing stm32f4xx_hal_cortex.o(i.HAL_MPU_Enable), (64 bytes).
    Removing stm32f4xx_hal_cortex.o(i.HAL_NVIC_ClearPendingIRQ), (36 bytes).
    Removing stm32f4xx_hal_cortex.o(i.HAL_NVIC_DisableIRQ), (68 bytes).
    Removing stm32f4xx_hal_cortex.o(i.HAL_NVIC_GetActive), (48 bytes).
    Removing stm32f4xx_hal_cortex.o(i.HAL_NVIC_GetPendingIRQ), (48 bytes).
    Removing stm32f4xx_hal_cortex.o(i.HAL_NVIC_GetPriority), (148 bytes).
    Removing stm32f4xx_hal_cortex.o(i.HAL_NVIC_GetPriorityGrouping), (8 bytes).
    Removing stm32f4xx_hal_cortex.o(i.HAL_NVIC_SetPendingIRQ), (36 bytes).
    Removing stm32f4xx_hal_cortex.o(i.HAL_SYSTICK_CLKSourceConfig), (40 bytes).
    Removing stm32f4xx_hal_cortex.o(i.HAL_SYSTICK_Callback), (2 bytes).
    Removing stm32f4xx_hal_cortex.o(i.HAL_SYSTICK_Config), (52 bytes).
    Removing stm32f4xx_hal_cortex.o(i.HAL_SYSTICK_IRQHandler), (8 bytes).
    Removing stm32f4xx_hal.o(.rev16_text), (4 bytes).
    Removing stm32f4xx_hal.o(.revsh_text), (4 bytes).
    Removing stm32f4xx_hal.o(.rrx_text), (6 bytes).
    Removing stm32f4xx_hal.o(i.HAL_DBGMCU_DisableDBGSleepMode), (20 bytes).
    Removing stm32f4xx_hal.o(i.HAL_DBGMCU_DisableDBGStandbyMode), (20 bytes).
    Removing stm32f4xx_hal.o(i.HAL_DBGMCU_DisableDBGStopMode), (20 bytes).
    Removing stm32f4xx_hal.o(i.HAL_DBGMCU_EnableDBGSleepMode), (20 bytes).
    Removing stm32f4xx_hal.o(i.HAL_DBGMCU_EnableDBGStandbyMode), (20 bytes).
    Removing stm32f4xx_hal.o(i.HAL_DBGMCU_EnableDBGStopMode), (20 bytes).
    Removing stm32f4xx_hal.o(i.HAL_DeInit), (68 bytes).
    Removing stm32f4xx_hal.o(i.HAL_DisableCompensationCell), (12 bytes).
    Removing stm32f4xx_hal.o(i.HAL_EnableCompensationCell), (12 bytes).
    Removing stm32f4xx_hal.o(i.HAL_GetDEVID), (16 bytes).
    Removing stm32f4xx_hal.o(i.HAL_GetHalVersion), (8 bytes).
    Removing stm32f4xx_hal.o(i.HAL_GetREVID), (12 bytes).
    Removing stm32f4xx_hal.o(i.HAL_GetTickFreq), (12 bytes).
    Removing stm32f4xx_hal.o(i.HAL_GetTickPrio), (12 bytes).
    Removing stm32f4xx_hal.o(i.HAL_GetUIDw0), (12 bytes).
    Removing stm32f4xx_hal.o(i.HAL_GetUIDw1), (12 bytes).
    Removing stm32f4xx_hal.o(i.HAL_GetUIDw2), (12 bytes).
    Removing stm32f4xx_hal.o(i.HAL_InitTick), (76 bytes).
    Removing stm32f4xx_hal.o(i.HAL_MspDeInit), (2 bytes).
    Removing stm32f4xx_hal.o(i.HAL_MspInit), (2 bytes).
    Removing stm32f4xx_hal.o(i.HAL_ResumeTick), (18 bytes).
    Removing stm32f4xx_hal.o(i.HAL_SetTickFreq), (48 bytes).
    Removing stm32f4xx_hal.o(i.HAL_SuspendTick), (18 bytes).
    Removing stm32f4xx_hal_exti.o(.rev16_text), (4 bytes).
    Removing stm32f4xx_hal_exti.o(.revsh_text), (4 bytes).
    Removing stm32f4xx_hal_exti.o(.rrx_text), (6 bytes).
    Removing stm32f4xx_hal_exti.o(i.HAL_EXTI_ClearConfigLine), (120 bytes).
    Removing stm32f4xx_hal_exti.o(i.HAL_EXTI_ClearPending), (28 bytes).
    Removing stm32f4xx_hal_exti.o(i.HAL_EXTI_GenerateSWI), (24 bytes).
    Removing stm32f4xx_hal_exti.o(i.HAL_EXTI_GetConfigLine), (160 bytes).
    Removing stm32f4xx_hal_exti.o(i.HAL_EXTI_GetHandle), (14 bytes).
    Removing stm32f4xx_hal_exti.o(i.HAL_EXTI_GetPending), (36 bytes).
    Removing stm32f4xx_hal_exti.o(i.HAL_EXTI_IRQHandler), (44 bytes).
    Removing stm32f4xx_hal_exti.o(i.HAL_EXTI_RegisterCallback), (20 bytes).
    Removing stm32f4xx_hal_exti.o(i.HAL_EXTI_SetConfigLine), (240 bytes).
    Removing stm32f4xx_hal_tim.o(.rev16_text), (4 bytes).
    Removing stm32f4xx_hal_tim.o(.revsh_text), (4 bytes).
    Removing stm32f4xx_hal_tim.o(.rrx_text), (6 bytes).
    Removing stm32f4xx_hal_tim.o(i.HAL_TIM_Base_DeInit), (120 bytes).
    Removing stm32f4xx_hal_tim.o(i.HAL_TIM_Base_GetState), (8 bytes).
    Removing stm32f4xx_hal_tim.o(i.HAL_TIM_Base_MspDeInit), (2 bytes).
    Removing stm32f4xx_hal_tim.o(i.HAL_TIM_Base_MspInit), (2 bytes).
    Removing stm32f4xx_hal_tim.o(i.HAL_TIM_Base_Start_DMA), (248 bytes).
    Removing stm32f4xx_hal_tim.o(i.HAL_TIM_Base_Stop), (50 bytes).
    Removing stm32f4xx_hal_tim.o(i.HAL_TIM_Base_Stop_DMA), (70 bytes).
    Removing stm32f4xx_hal_tim.o(i.HAL_TIM_ConfigClockSource), (268 bytes).
    Removing stm32f4xx_hal_tim.o(i.HAL_TIM_ConfigOCrefClear), (278 bytes).
    Removing stm32f4xx_hal_tim.o(i.HAL_TIM_ConfigTI1Input), (22 bytes).
    Removing stm32f4xx_hal_tim.o(i.HAL_TIM_DMABurstState), (8 bytes).
    Removing stm32f4xx_hal_tim.o(i.HAL_TIM_DMABurst_MultiReadStart), (476 bytes).
    Removing stm32f4xx_hal_tim.o(i.HAL_TIM_DMABurst_MultiWriteStart), (476 bytes).
    Removing stm32f4xx_hal_tim.o(i.HAL_TIM_DMABurst_ReadStart), (46 bytes).
    Removing stm32f4xx_hal_tim.o(i.HAL_TIM_DMABurst_ReadStop), (140 bytes).
    Removing stm32f4xx_hal_tim.o(i.HAL_TIM_DMABurst_WriteStart), (46 bytes).
    Removing stm32f4xx_hal_tim.o(i.HAL_TIM_DMABurst_WriteStop), (140 bytes).
    Removing stm32f4xx_hal_tim.o(i.HAL_TIM_Encoder_DeInit), (96 bytes).
    Removing stm32f4xx_hal_tim.o(i.HAL_TIM_Encoder_GetState), (8 bytes).
    Removing stm32f4xx_hal_tim.o(i.HAL_TIM_Encoder_Init), (200 bytes).
    Removing stm32f4xx_hal_tim.o(i.HAL_TIM_Encoder_MspDeInit), (2 bytes).
    Removing stm32f4xx_hal_tim.o(i.HAL_TIM_Encoder_MspInit), (2 bytes).
    Removing stm32f4xx_hal_tim.o(i.HAL_TIM_Encoder_Start), (204 bytes).
    Removing stm32f4xx_hal_tim.o(i.HAL_TIM_Encoder_Start_DMA), (556 bytes).
    Removing stm32f4xx_hal_tim.o(i.HAL_TIM_Encoder_Start_IT), (252 bytes).
    Removing stm32f4xx_hal_tim.o(i.HAL_TIM_Encoder_Stop), (214 bytes).
    Removing stm32f4xx_hal_tim.o(i.HAL_TIM_Encoder_Stop_DMA), (280 bytes).
    Removing stm32f4xx_hal_tim.o(i.HAL_TIM_Encoder_Stop_IT), (256 bytes).
    Removing stm32f4xx_hal_tim.o(i.HAL_TIM_ErrorCallback), (2 bytes).
    Removing stm32f4xx_hal_tim.o(i.HAL_TIM_GenerateEvent), (54 bytes).
    Removing stm32f4xx_hal_tim.o(i.HAL_TIM_GetActiveChannel), (6 bytes).
    Removing stm32f4xx_hal_tim.o(i.HAL_TIM_GetChannelState), (38 bytes).
    Removing stm32f4xx_hal_tim.o(i.HAL_TIM_IC_CaptureHalfCpltCallback), (2 bytes).
    Removing stm32f4xx_hal_tim.o(i.HAL_TIM_IC_ConfigChannel), (222 bytes).
    Removing stm32f4xx_hal_tim.o(i.HAL_TIM_IC_DeInit), (120 bytes).
    Removing stm32f4xx_hal_tim.o(i.HAL_TIM_IC_GetState), (8 bytes).
    Removing stm32f4xx_hal_tim.o(i.HAL_TIM_IC_Init), (102 bytes).
    Removing stm32f4xx_hal_tim.o(i.HAL_TIM_IC_MspDeInit), (2 bytes).
    Removing stm32f4xx_hal_tim.o(i.HAL_TIM_IC_MspInit), (2 bytes).
    Removing stm32f4xx_hal_tim.o(i.HAL_TIM_IC_Start), (316 bytes).
    Removing stm32f4xx_hal_tim.o(i.HAL_TIM_IC_Start_DMA), (608 bytes).
    Removing stm32f4xx_hal_tim.o(i.HAL_TIM_IC_Start_IT), (400 bytes).
    Removing stm32f4xx_hal_tim.o(i.HAL_TIM_IC_Stop), (138 bytes).
    Removing stm32f4xx_hal_tim.o(i.HAL_TIM_IC_Stop_DMA), (244 bytes).
    Removing stm32f4xx_hal_tim.o(i.HAL_TIM_IC_Stop_IT), (222 bytes).
    Removing stm32f4xx_hal_tim.o(i.HAL_TIM_OC_ConfigChannel), (112 bytes).
    Removing stm32f4xx_hal_tim.o(i.HAL_TIM_OC_DeInit), (120 bytes).
    Removing stm32f4xx_hal_tim.o(i.HAL_TIM_OC_GetState), (8 bytes).
    Removing stm32f4xx_hal_tim.o(i.HAL_TIM_OC_Init), (102 bytes).
    Removing stm32f4xx_hal_tim.o(i.HAL_TIM_OC_MspDeInit), (2 bytes).
    Removing stm32f4xx_hal_tim.o(i.HAL_TIM_OC_MspInit), (2 bytes).
    Removing stm32f4xx_hal_tim.o(i.HAL_TIM_OC_Start), (268 bytes).
    Removing stm32f4xx_hal_tim.o(i.HAL_TIM_OC_Start_DMA), (584 bytes).
    Removing stm32f4xx_hal_tim.o(i.HAL_TIM_OC_Start_IT), (352 bytes).
    Removing stm32f4xx_hal_tim.o(i.HAL_TIM_OC_Stop), (168 bytes).
    Removing stm32f4xx_hal_tim.o(i.HAL_TIM_OC_Stop_DMA), (276 bytes).
    Removing stm32f4xx_hal_tim.o(i.HAL_TIM_OC_Stop_IT), (252 bytes).
    Removing stm32f4xx_hal_tim.o(i.HAL_TIM_OnePulse_ConfigChannel), (310 bytes).
    Removing stm32f4xx_hal_tim.o(i.HAL_TIM_OnePulse_DeInit), (96 bytes).
    Removing stm32f4xx_hal_tim.o(i.HAL_TIM_OnePulse_GetState), (8 bytes).
    Removing stm32f4xx_hal_tim.o(i.HAL_TIM_OnePulse_Init), (102 bytes).
    Removing stm32f4xx_hal_tim.o(i.HAL_TIM_OnePulse_MspDeInit), (2 bytes).
    Removing stm32f4xx_hal_tim.o(i.HAL_TIM_OnePulse_MspInit), (2 bytes).
    Removing stm32f4xx_hal_tim.o(i.HAL_TIM_OnePulse_Start), (140 bytes).
    Removing stm32f4xx_hal_tim.o(i.HAL_TIM_OnePulse_Start_IT), (164 bytes).
    Removing stm32f4xx_hal_tim.o(i.HAL_TIM_OnePulse_Stop), (160 bytes).
    Removing stm32f4xx_hal_tim.o(i.HAL_TIM_OnePulse_Stop_IT), (184 bytes).
    Removing stm32f4xx_hal_tim.o(i.HAL_TIM_PWM_ConfigChannel), (260 bytes).
    Removing stm32f4xx_hal_tim.o(i.HAL_TIM_PWM_DeInit), (120 bytes).
    Removing stm32f4xx_hal_tim.o(i.HAL_TIM_PWM_GetState), (8 bytes).
    Removing stm32f4xx_hal_tim.o(i.HAL_TIM_PWM_Init), (102 bytes).
    Removing stm32f4xx_hal_tim.o(i.HAL_TIM_PWM_MspDeInit), (2 bytes).
    Removing stm32f4xx_hal_tim.o(i.HAL_TIM_PWM_MspInit), (2 bytes).
    Removing stm32f4xx_hal_tim.o(i.HAL_TIM_PWM_PulseFinishedHalfCpltCallback), (2 bytes).
    Removing stm32f4xx_hal_tim.o(i.HAL_TIM_PWM_Start), (268 bytes).
    Removing stm32f4xx_hal_tim.o(i.HAL_TIM_PWM_Start_DMA), (584 bytes).
    Removing stm32f4xx_hal_tim.o(i.HAL_TIM_PWM_Start_IT), (352 bytes).
    Removing stm32f4xx_hal_tim.o(i.HAL_TIM_PWM_Stop), (168 bytes).
    Removing stm32f4xx_hal_tim.o(i.HAL_TIM_PWM_Stop_DMA), (276 bytes).
    Removing stm32f4xx_hal_tim.o(i.HAL_TIM_PWM_Stop_IT), (252 bytes).
    Removing stm32f4xx_hal_tim.o(i.HAL_TIM_PeriodElapsedCallback), (2 bytes).
    Removing stm32f4xx_hal_tim.o(i.HAL_TIM_PeriodElapsedHalfCpltCallback), (2 bytes).
    Removing stm32f4xx_hal_tim.o(i.HAL_TIM_ReadCapturedValue), (50 bytes).
    Removing stm32f4xx_hal_tim.o(i.HAL_TIM_SlaveConfigSynchro), (108 bytes).
    Removing stm32f4xx_hal_tim.o(i.HAL_TIM_SlaveConfigSynchro_IT), (108 bytes).
    Removing stm32f4xx_hal_tim.o(i.HAL_TIM_TriggerHalfCpltCallback), (2 bytes).
    Removing stm32f4xx_hal_tim.o(i.TIM_CCxChannelCmd), (34 bytes).
    Removing stm32f4xx_hal_tim.o(i.TIM_DMACaptureCplt), (122 bytes).
    Removing stm32f4xx_hal_tim.o(i.TIM_DMACaptureHalfCplt), (64 bytes).
    Removing stm32f4xx_hal_tim.o(i.TIM_DMADelayPulseCplt), (104 bytes).
    Removing stm32f4xx_hal_tim.o(i.TIM_DMADelayPulseHalfCplt), (64 bytes).
    Removing stm32f4xx_hal_tim.o(i.TIM_DMAError), (94 bytes).
    Removing stm32f4xx_hal_tim.o(i.TIM_DMAPeriodElapsedCplt), (26 bytes).
    Removing stm32f4xx_hal_tim.o(i.TIM_DMAPeriodElapsedHalfCplt), (14 bytes).
    Removing stm32f4xx_hal_tim.o(i.TIM_DMATriggerCplt), (26 bytes).
    Removing stm32f4xx_hal_tim.o(i.TIM_DMATriggerHalfCplt), (14 bytes).
    Removing stm32f4xx_hal_tim.o(i.TIM_ETR_SetConfig), (22 bytes).
    Removing stm32f4xx_hal_tim.o(i.TIM_ITRx_SetConfig), (18 bytes).
    Removing stm32f4xx_hal_tim.o(i.TIM_OC1_SetConfig), (112 bytes).
    Removing stm32f4xx_hal_tim.o(i.TIM_OC2_SetConfig), (124 bytes).
    Removing stm32f4xx_hal_tim.o(i.TIM_OC3_SetConfig), (120 bytes).
    Removing stm32f4xx_hal_tim.o(i.TIM_OC4_SetConfig), (84 bytes).
    Removing stm32f4xx_hal_tim.o(i.TIM_SlaveTimer_SetConfig), (178 bytes).
    Removing stm32f4xx_hal_tim.o(i.TIM_TI1_ConfigInputStage), (38 bytes).
    Removing stm32f4xx_hal_tim.o(i.TIM_TI1_SetConfig), (144 bytes).
    Removing stm32f4xx_hal_tim.o(i.TIM_TI2_ConfigInputStage), (40 bytes).
    Removing stm32f4xx_hal_tim.o(i.TIM_TI2_SetConfig), (58 bytes).
    Removing stm32f4xx_hal_tim.o(i.TIM_TI3_SetConfig), (56 bytes).
    Removing stm32f4xx_hal_tim.o(i.TIM_TI4_SetConfig), (60 bytes).
    Removing stm32f4xx_hal_tim_ex.o(.rev16_text), (4 bytes).
    Removing stm32f4xx_hal_tim_ex.o(.revsh_text), (4 bytes).
    Removing stm32f4xx_hal_tim_ex.o(.rrx_text), (6 bytes).
    Removing stm32f4xx_hal_tim_ex.o(i.HAL_TIMEx_CommutHalfCpltCallback), (2 bytes).
    Removing stm32f4xx_hal_tim_ex.o(i.HAL_TIMEx_ConfigBreakDeadTime), (116 bytes).
    Removing stm32f4xx_hal_tim_ex.o(i.HAL_TIMEx_ConfigCommutEvent), (134 bytes).
    Removing stm32f4xx_hal_tim_ex.o(i.HAL_TIMEx_ConfigCommutEvent_DMA), (164 bytes).
    Removing stm32f4xx_hal_tim_ex.o(i.HAL_TIMEx_ConfigCommutEvent_IT), (134 bytes).
    Removing stm32f4xx_hal_tim_ex.o(i.HAL_TIMEx_GetChannelNState), (38 bytes).
    Removing stm32f4xx_hal_tim_ex.o(i.HAL_TIMEx_HallSensor_DeInit), (96 bytes).
    Removing stm32f4xx_hal_tim_ex.o(i.HAL_TIMEx_HallSensor_GetState), (8 bytes).
    Removing stm32f4xx_hal_tim_ex.o(i.HAL_TIMEx_HallSensor_Init), (234 bytes).
    Removing stm32f4xx_hal_tim_ex.o(i.HAL_TIMEx_HallSensor_MspDeInit), (2 bytes).
    Removing stm32f4xx_hal_tim_ex.o(i.HAL_TIMEx_HallSensor_MspInit), (2 bytes).
    Removing stm32f4xx_hal_tim_ex.o(i.HAL_TIMEx_HallSensor_Start), (216 bytes).
    Removing stm32f4xx_hal_tim_ex.o(i.HAL_TIMEx_HallSensor_Start_DMA), (280 bytes).
    Removing stm32f4xx_hal_tim_ex.o(i.HAL_TIMEx_HallSensor_Start_IT), (228 bytes).
    Removing stm32f4xx_hal_tim_ex.o(i.HAL_TIMEx_HallSensor_Stop), (78 bytes).
    Removing stm32f4xx_hal_tim_ex.o(i.HAL_TIMEx_HallSensor_Stop_DMA), (84 bytes).
    Removing stm32f4xx_hal_tim_ex.o(i.HAL_TIMEx_HallSensor_Stop_IT), (90 bytes).
    Removing stm32f4xx_hal_tim_ex.o(i.HAL_TIMEx_OCN_Start), (244 bytes).
    Removing stm32f4xx_hal_tim_ex.o(i.HAL_TIMEx_OCN_Start_DMA), (504 bytes).
    Removing stm32f4xx_hal_tim_ex.o(i.HAL_TIMEx_OCN_Start_IT), (324 bytes).
    Removing stm32f4xx_hal_tim_ex.o(i.HAL_TIMEx_OCN_Stop), (136 bytes).
    Removing stm32f4xx_hal_tim_ex.o(i.HAL_TIMEx_OCN_Stop_DMA), (220 bytes).
    Removing stm32f4xx_hal_tim_ex.o(i.HAL_TIMEx_OCN_Stop_IT), (230 bytes).
    Removing stm32f4xx_hal_tim_ex.o(i.HAL_TIMEx_OnePulseN_Start), (118 bytes).
    Removing stm32f4xx_hal_tim_ex.o(i.HAL_TIMEx_OnePulseN_Start_IT), (142 bytes).
    Removing stm32f4xx_hal_tim_ex.o(i.HAL_TIMEx_OnePulseN_Stop), (138 bytes).
    Removing stm32f4xx_hal_tim_ex.o(i.HAL_TIMEx_OnePulseN_Stop_IT), (162 bytes).
    Removing stm32f4xx_hal_tim_ex.o(i.HAL_TIMEx_PWMN_Start), (244 bytes).
    Removing stm32f4xx_hal_tim_ex.o(i.HAL_TIMEx_PWMN_Start_DMA), (504 bytes).
    Removing stm32f4xx_hal_tim_ex.o(i.HAL_TIMEx_PWMN_Start_IT), (324 bytes).
    Removing stm32f4xx_hal_tim_ex.o(i.HAL_TIMEx_PWMN_Stop), (136 bytes).
    Removing stm32f4xx_hal_tim_ex.o(i.HAL_TIMEx_PWMN_Stop_DMA), (220 bytes).
    Removing stm32f4xx_hal_tim_ex.o(i.HAL_TIMEx_PWMN_Stop_IT), (230 bytes).
    Removing stm32f4xx_hal_tim_ex.o(i.HAL_TIMEx_RemapConfig), (42 bytes).
    Removing stm32f4xx_hal_tim_ex.o(i.TIMEx_DMACommutationCplt), (20 bytes).
    Removing stm32f4xx_hal_tim_ex.o(i.TIMEx_DMACommutationHalfCplt), (20 bytes).
    Removing stm32f4xx_hal_tim_ex.o(i.TIM_CCxNChannelCmd), (34 bytes).
    Removing stm32f4xx_hal_tim_ex.o(i.TIM_DMADelayPulseNCplt), (104 bytes).
    Removing stm32f4xx_hal_tim_ex.o(i.TIM_DMAErrorCCxN), (68 bytes).
    Removing stm32f4xx_hal_uart.o(.rev16_text), (4 bytes).
    Removing stm32f4xx_hal_uart.o(.revsh_text), (4 bytes).
    Removing stm32f4xx_hal_uart.o(.rrx_text), (6 bytes).
    Removing stm32f4xx_hal_uart.o(i.HAL_HalfDuplex_EnableReceiver), (68 bytes).
    Removing stm32f4xx_hal_uart.o(i.HAL_HalfDuplex_EnableTransmitter), (68 bytes).
    Removing stm32f4xx_hal_uart.o(i.HAL_HalfDuplex_Init), (118 bytes).
    Removing stm32f4xx_hal_uart.o(i.HAL_LIN_Init), (142 bytes).
    Removing stm32f4xx_hal_uart.o(i.HAL_LIN_SendBreak), (80 bytes).
    Removing stm32f4xx_hal_uart.o(i.HAL_MultiProcessor_EnterMuteMode), (80 bytes).
    Removing stm32f4xx_hal_uart.o(i.HAL_MultiProcessor_ExitMuteMode), (80 bytes).
    Removing stm32f4xx_hal_uart.o(i.HAL_MultiProcessor_Init), (154 bytes).
    Removing stm32f4xx_hal_uart.o(i.HAL_UARTEx_ReceiveToIdle), (320 bytes).
    Removing stm32f4xx_hal_uart.o(i.HAL_UARTEx_ReceiveToIdle_DMA), (130 bytes).
    Removing stm32f4xx_hal_uart.o(i.HAL_UARTEx_ReceiveToIdle_IT), (130 bytes).
    Removing stm32f4xx_hal_uart.o(i.HAL_UART_Abort), (282 bytes).
    Removing stm32f4xx_hal_uart.o(i.HAL_UART_AbortCpltCallback), (2 bytes).
    Removing stm32f4xx_hal_uart.o(i.HAL_UART_AbortReceive), (196 bytes).
    Removing stm32f4xx_hal_uart.o(i.HAL_UART_AbortReceiveCpltCallback), (2 bytes).
    Removing stm32f4xx_hal_uart.o(i.HAL_UART_AbortReceive_IT), (220 bytes).
    Removing stm32f4xx_hal_uart.o(i.HAL_UART_AbortTransmit), (126 bytes).
    Removing stm32f4xx_hal_uart.o(i.HAL_UART_AbortTransmitCpltCallback), (2 bytes).
    Removing stm32f4xx_hal_uart.o(i.HAL_UART_AbortTransmit_IT), (144 bytes).
    Removing stm32f4xx_hal_uart.o(i.HAL_UART_Abort_IT), (336 bytes).
    Removing stm32f4xx_hal_uart.o(i.HAL_UART_DMAPause), (198 bytes).
    Removing stm32f4xx_hal_uart.o(i.HAL_UART_DMAResume), (198 bytes).
    Removing stm32f4xx_hal_uart.o(i.HAL_UART_DMAStop), (138 bytes).
    Removing stm32f4xx_hal_uart.o(i.HAL_UART_DeInit), (60 bytes).
    Removing stm32f4xx_hal_uart.o(i.HAL_UART_GetError), (6 bytes).
    Removing stm32f4xx_hal_uart.o(i.HAL_UART_GetState), (20 bytes).
    Removing stm32f4xx_hal_uart.o(i.HAL_UART_MspDeInit), (2 bytes).
    Removing stm32f4xx_hal_uart.o(i.HAL_UART_MspInit), (2 bytes).
    Removing stm32f4xx_hal_uart.o(i.HAL_UART_Receive), (220 bytes).
    Removing stm32f4xx_hal_uart.o(i.HAL_UART_Receive_DMA), (66 bytes).
    Removing stm32f4xx_hal_uart.o(i.HAL_UART_Receive_IT), (66 bytes).
    Removing stm32f4xx_hal_uart.o(i.HAL_UART_RxHalfCpltCallback), (2 bytes).
    Removing stm32f4xx_hal_uart.o(i.HAL_UART_Transmit_DMA), (172 bytes).
    Removing stm32f4xx_hal_uart.o(i.HAL_UART_Transmit_IT), (88 bytes).
    Removing stm32f4xx_hal_uart.o(i.HAL_UART_TxHalfCpltCallback), (2 bytes).
    Removing stm32f4xx_hal_uart.o(i.UART_DMAError), (80 bytes).
    Removing stm32f4xx_hal_uart.o(i.UART_DMAReceiveCplt), (176 bytes).
    Removing stm32f4xx_hal_uart.o(i.UART_DMARxAbortCallback), (56 bytes).
    Removing stm32f4xx_hal_uart.o(i.UART_DMARxHalfCplt), (32 bytes).
    Removing stm32f4xx_hal_uart.o(i.UART_DMARxOnlyAbortCallback), (28 bytes).
    Removing stm32f4xx_hal_uart.o(i.UART_DMATransmitCplt), (88 bytes).
    Removing stm32f4xx_hal_uart.o(i.UART_DMATxAbortCallback), (56 bytes).
    Removing stm32f4xx_hal_uart.o(i.UART_DMATxHalfCplt), (14 bytes).
    Removing stm32f4xx_hal_uart.o(i.UART_DMATxOnlyAbortCallback), (24 bytes).
    Removing stm32f4xx_hal_uart.o(i.UART_EndTxTransfer), (38 bytes).
    Removing stm32f4xx_hal_uart.o(i.UART_Start_Receive_DMA), (204 bytes).
    Removing stm32f4xx_hal_uart.o(i.UART_Start_Receive_IT), (70 bytes).
    Removing system_stm32f4xx.o(.rev16_text), (4 bytes).
    Removing system_stm32f4xx.o(.revsh_text), (4 bytes).
    Removing system_stm32f4xx.o(.rrx_text), (6 bytes).
    Removing system_stm32f4xx.o(i.SystemCoreClockUpdate), (192 bytes).
    Removing co_emergency.o(.rev16_text), (4 bytes).
    Removing co_emergency.o(.revsh_text), (4 bytes).
    Removing co_emergency.o(.rrx_text), (6 bytes).
    Removing co_fifo.o(.rev16_text), (4 bytes).
    Removing co_fifo.o(.revsh_text), (4 bytes).
    Removing co_fifo.o(.rrx_text), (6 bytes).
    Removing co_hbconsumer.o(.rev16_text), (4 bytes).
    Removing co_hbconsumer.o(.revsh_text), (4 bytes).
    Removing co_hbconsumer.o(.rrx_text), (6 bytes).
    Removing co_nmt_heartbeat.o(.rev16_text), (4 bytes).
    Removing co_nmt_heartbeat.o(.revsh_text), (4 bytes).
    Removing co_nmt_heartbeat.o(.rrx_text), (6 bytes).
    Removing co_odinterface.o(.rev16_text), (4 bytes).
    Removing co_odinterface.o(.revsh_text), (4 bytes).
    Removing co_odinterface.o(.rrx_text), (6 bytes).
    Removing co_pdo.o(.rev16_text), (4 bytes).
    Removing co_pdo.o(.revsh_text), (4 bytes).
    Removing co_pdo.o(.rrx_text), (6 bytes).
    Removing co_sdoclient.o(.rev16_text), (4 bytes).
    Removing co_sdoclient.o(.revsh_text), (4 bytes).
    Removing co_sdoclient.o(.rrx_text), (6 bytes).
    Removing co_sdoclient.o(i.CO_SDOclientClose), (10 bytes).
    Removing co_sdoclient.o(i.CO_SDOclientDownloadInitiateSize), (6 bytes).
    Removing co_sdoserver.o(.rev16_text), (4 bytes).
    Removing co_sdoserver.o(.revsh_text), (4 bytes).
    Removing co_sdoserver.o(.rrx_text), (6 bytes).
    Removing co_sync.o(.rev16_text), (4 bytes).
    Removing co_sync.o(.revsh_text), (4 bytes).
    Removing co_sync.o(.rrx_text), (6 bytes).
    Removing co_time.o(.rev16_text), (4 bytes).
    Removing co_time.o(.revsh_text), (4 bytes).
    Removing co_time.o(.rrx_text), (6 bytes).
    Removing crc16-ccitt.o(.rev16_text), (4 bytes).
    Removing crc16-ccitt.o(.revsh_text), (4 bytes).
    Removing crc16-ccitt.o(.rrx_text), (6 bytes).
    Removing co_leds.o(.rev16_text), (4 bytes).
    Removing co_leds.o(.revsh_text), (4 bytes).
    Removing co_leds.o(.rrx_text), (6 bytes).
    Removing co_gfc.o(.rev16_text), (4 bytes).
    Removing co_gfc.o(.revsh_text), (4 bytes).
    Removing co_gfc.o(.rrx_text), (6 bytes).
    Removing co_srdo.o(.rev16_text), (4 bytes).
    Removing co_srdo.o(.revsh_text), (4 bytes).
    Removing co_srdo.o(.rrx_text), (6 bytes).
    Removing co_lssmaster.o(.rev16_text), (4 bytes).
    Removing co_lssmaster.o(.revsh_text), (4 bytes).
    Removing co_lssmaster.o(.rrx_text), (6 bytes).
    Removing co_lssmaster.o(.constdata), (20 bytes).
    Removing co_lssslave.o(.rev16_text), (4 bytes).
    Removing co_lssslave.o(.revsh_text), (4 bytes).
    Removing co_lssslave.o(.rrx_text), (6 bytes).
    Removing co_lssslave.o(i.CO_LSSslave_initActivateBitRateCallback), (8 bytes).
    Removing co_lssslave.o(i.CO_LSSslave_initCfgStoreCallback), (8 bytes).
    Removing co_lssslave.o(i.CO_LSSslave_initCheckBitRateCallback), (8 bytes).
    Removing co_gateway_ascii.o(.rev16_text), (4 bytes).
    Removing co_gateway_ascii.o(.revsh_text), (4 bytes).
    Removing co_gateway_ascii.o(.rrx_text), (6 bytes).
    Removing co_gateway_ascii.o(.constdata), (20 bytes).
    Removing co_trace.o(.rev16_text), (4 bytes).
    Removing co_trace.o(.revsh_text), (4 bytes).
    Removing co_trace.o(.rrx_text), (6 bytes).
    Removing co_storage.o(.rev16_text), (4 bytes).
    Removing co_storage.o(.revsh_text), (4 bytes).
    Removing co_storage.o(.rrx_text), (6 bytes).
    Removing co_storageeeprom.o(.rev16_text), (4 bytes).
    Removing co_storageeeprom.o(.revsh_text), (4 bytes).
    Removing co_storageeeprom.o(.rrx_text), (6 bytes).
    Removing canopen.o(.rev16_text), (4 bytes).
    Removing canopen.o(.revsh_text), (4 bytes).
    Removing canopen.o(.rrx_text), (6 bytes).
    Removing canopen.o(i.CO_isLSSslaveEnabled), (8 bytes).
    Removing canopen.o(.constdata), (20 bytes).
    Removing co_app_stm32.o(.rev16_text), (4 bytes).
    Removing co_app_stm32.o(.revsh_text), (4 bytes).
    Removing co_app_stm32.o(.rrx_text), (6 bytes).
    Removing co_app_stm32.o(.constdata), (20 bytes).
    Removing co_driver_stm32.o(.rev16_text), (4 bytes).
    Removing co_driver_stm32.o(.revsh_text), (4 bytes).
    Removing co_driver_stm32.o(.rrx_text), (6 bytes).
    Removing co_driver_stm32.o(.constdata), (20 bytes).
    Removing co_storageblank.o(.rev16_text), (4 bytes).
    Removing co_storageblank.o(.revsh_text), (4 bytes).
    Removing co_storageblank.o(.rrx_text), (6 bytes).
    Removing od.o(.rev16_text), (4 bytes).
    Removing od.o(.revsh_text), (4 bytes).
    Removing od.o(.rrx_text), (6 bytes).
    Removing jawd_speed.o(.rev16_text), (4 bytes).
    Removing jawd_speed.o(.revsh_text), (4 bytes).
    Removing jawd_speed.o(.rrx_text), (6 bytes).
    Removing jawd_speed.o(i.setspeed), (120 bytes).
    Removing jawd_speed.o(.constdata), (20 bytes).
    Removing canopen_operate.o(.rev16_text), (4 bytes).
    Removing canopen_operate.o(.revsh_text), (4 bytes).
    Removing canopen_operate.o(.rrx_text), (6 bytes).
    Removing canopen_operate.o(.constdata), (20 bytes).
    Removing key.o(.rev16_text), (4 bytes).
    Removing key.o(.revsh_text), (4 bytes).
    Removing key.o(.rrx_text), (6 bytes).
    Removing modbus_tim.o(.rev16_text), (4 bytes).
    Removing modbus_tim.o(.revsh_text), (4 bytes).
    Removing modbus_tim.o(.rrx_text), (6 bytes).
    Removing modbus_usart.o(.rev16_text), (4 bytes).
    Removing modbus_usart.o(.revsh_text), (4 bytes).
    Removing modbus_usart.o(.rrx_text), (6 bytes).
    Removing modbus_usart.o(i.ComToUSARTx), (20 bytes).
    Removing modbus_usart.o(i.RS485_SendStr), (22 bytes).
    Removing modbus_usart.o(i.RS485_SetBaud), (14 bytes).
    Removing modbus_usart.o(i.UartGetChar), (74 bytes).
    Removing modbus_usart.o(i.UartTxEmpty), (32 bytes).
    Removing modbus_usart.o(i.comClearRxFifo), (28 bytes).
    Removing modbus_usart.o(i.comClearTxFifo), (28 bytes).
    Removing modbus_usart.o(i.comGetChar), (30 bytes).
    Removing modbus_usart.o(i.comSendChar), (16 bytes).
    Removing modbus_usart.o(i.comSetBaud), (34 bytes).
    Removing modbus_slave.o(.rev16_text), (4 bytes).
    Removing modbus_slave.o(.revsh_text), (4 bytes).
    Removing modbus_slave.o(.rrx_text), (6 bytes).
    Removing user_lib.o(i.AsciiToUint32), (356 bytes).
    Removing user_lib.o(i.BEBufToUint32), (24 bytes).
    Removing user_lib.o(i.BcdToChar), (30 bytes).
    Removing user_lib.o(i.CaculTwoPoint), (50 bytes).
    Removing user_lib.o(i.HexToAscll), (86 bytes).
    Removing user_lib.o(i.LEBufToUint16), (12 bytes).
    Removing user_lib.o(i.LEBufToUint32), (24 bytes).
    Removing user_lib.o(i.int_to_str), (124 bytes).
    Removing user_lib.o(i.mem_set), (18 bytes).
    Removing user_lib.o(i.str_cmp), (32 bytes).
    Removing user_lib.o(i.str_cpy), (18 bytes).
    Removing user_lib.o(i.str_len), (18 bytes).
    Removing user_lib.o(i.str_to_int), (84 bytes).
    Removing modbus_msg.o(i.bsp_ClearMsg), (20 bytes).
    Removing modbus_msg.o(i.bsp_GetMsg2), (76 bytes).
    Removing modbus_msg.o(i.bsp_InitMsg), (8 bytes).
    Removing eventrecorder.o(.rev16_text), (4 bytes).
    Removing eventrecorder.o(.revsh_text), (4 bytes).
    Removing eventrecorder.o(.rrx_text), (6 bytes).
    Removing eventrecorder.o(i.EventCheckFilter), (40 bytes).
    Removing eventrecorder.o(i.EventRecord2), (70 bytes).
    Removing eventrecorder.o(i.EventRecord4), (118 bytes).
    Removing eventrecorder.o(i.EventRecordData), (280 bytes).
    Removing eventrecorder.o(i.EventRecorderDisable), (92 bytes).
    Removing eventrecorder.o(i.EventRecorderStop), (48 bytes).
    Removing eventrecorder.o(i.GetContext), (16 bytes).
    Removing eventrecorder.o(i.atomic_inc8), (22 bytes).
    Removing dadd.o(.text), (334 bytes).
    Removing dmul.o(.text), (228 bytes).
    Removing ddiv.o(.text), (222 bytes).
    Removing dfixul.o(.text), (48 bytes).
    Removing cdrcmple.o(.text), (48 bytes).
    Removing depilogue.o(.text), (186 bytes).

588 unused section(s) (total 43932 bytes) removed from the image.

==============================================================================

Image Symbol Table

    Local Symbols

    Symbol Name                              Value     Ov Type        Size  Object(Section)

    ../Core/Src/can.c                        0x00000000   Number         0  can.o ABSOLUTE
    ../Core/Src/gpio.c                       0x00000000   Number         0  gpio.o ABSOLUTE
    ../Core/Src/main.c                       0x00000000   Number         0  main.o ABSOLUTE
    ../Core/Src/stm32f4xx_hal_msp.c          0x00000000   Number         0  stm32f4xx_hal_msp.o ABSOLUTE
    ../Core/Src/stm32f4xx_hal_timebase_tim.c 0x00000000   Number         0  stm32f4xx_hal_timebase_tim.o ABSOLUTE
    ../Core/Src/stm32f4xx_it.c               0x00000000   Number         0  stm32f4xx_it.o ABSOLUTE
    ../Core/Src/system_stm32f4xx.c           0x00000000   Number         0  system_stm32f4xx.o ABSOLUTE
    ../Core/Src/tim.c                        0x00000000   Number         0  tim.o ABSOLUTE
    ../Core/Src/usart.c                      0x00000000   Number         0  usart.o ABSOLUTE
    ../Drivers/STM32F4xx_HAL_Driver/Src/stm32f4xx_hal.c 0x00000000   Number         0  stm32f4xx_hal.o ABSOLUTE
    ../Drivers/STM32F4xx_HAL_Driver/Src/stm32f4xx_hal_can.c 0x00000000   Number         0  stm32f4xx_hal_can.o ABSOLUTE
    ../Drivers/STM32F4xx_HAL_Driver/Src/stm32f4xx_hal_cortex.c 0x00000000   Number         0  stm32f4xx_hal_cortex.o ABSOLUTE
    ../Drivers/STM32F4xx_HAL_Driver/Src/stm32f4xx_hal_dma.c 0x00000000   Number         0  stm32f4xx_hal_dma.o ABSOLUTE
    ../Drivers/STM32F4xx_HAL_Driver/Src/stm32f4xx_hal_dma_ex.c 0x00000000   Number         0  stm32f4xx_hal_dma_ex.o ABSOLUTE
    ../Drivers/STM32F4xx_HAL_Driver/Src/stm32f4xx_hal_exti.c 0x00000000   Number         0  stm32f4xx_hal_exti.o ABSOLUTE
    ../Drivers/STM32F4xx_HAL_Driver/Src/stm32f4xx_hal_flash.c 0x00000000   Number         0  stm32f4xx_hal_flash.o ABSOLUTE
    ../Drivers/STM32F4xx_HAL_Driver/Src/stm32f4xx_hal_flash_ex.c 0x00000000   Number         0  stm32f4xx_hal_flash_ex.o ABSOLUTE
    ../Drivers/STM32F4xx_HAL_Driver/Src/stm32f4xx_hal_flash_ramfunc.c 0x00000000   Number         0  stm32f4xx_hal_flash_ramfunc.o ABSOLUTE
    ../Drivers/STM32F4xx_HAL_Driver/Src/stm32f4xx_hal_gpio.c 0x00000000   Number         0  stm32f4xx_hal_gpio.o ABSOLUTE
    ../Drivers/STM32F4xx_HAL_Driver/Src/stm32f4xx_hal_pwr.c 0x00000000   Number         0  stm32f4xx_hal_pwr.o ABSOLUTE
    ../Drivers/STM32F4xx_HAL_Driver/Src/stm32f4xx_hal_pwr_ex.c 0x00000000   Number         0  stm32f4xx_hal_pwr_ex.o ABSOLUTE
    ../Drivers/STM32F4xx_HAL_Driver/Src/stm32f4xx_hal_rcc.c 0x00000000   Number         0  stm32f4xx_hal_rcc.o ABSOLUTE
    ../Drivers/STM32F4xx_HAL_Driver/Src/stm32f4xx_hal_rcc_ex.c 0x00000000   Number         0  stm32f4xx_hal_rcc_ex.o ABSOLUTE
    ../Drivers/STM32F4xx_HAL_Driver/Src/stm32f4xx_hal_tim.c 0x00000000   Number         0  stm32f4xx_hal_tim.o ABSOLUTE
    ../Drivers/STM32F4xx_HAL_Driver/Src/stm32f4xx_hal_tim_ex.c 0x00000000   Number         0  stm32f4xx_hal_tim_ex.o ABSOLUTE
    ../Drivers/STM32F4xx_HAL_Driver/Src/stm32f4xx_hal_uart.c 0x00000000   Number         0  stm32f4xx_hal_uart.o ABSOLUTE
    ../clib/../cmprslib/zerorunl2.c          0x00000000   Number         0  __dczerorl2.o ABSOLUTE
    ../clib/microlib/division.c              0x00000000   Number         0  ldiv.o ABSOLUTE
    ../clib/microlib/division.c              0x00000000   Number         0  uidiv.o ABSOLUTE
    ../clib/microlib/division.c              0x00000000   Number         0  uldiv.o ABSOLUTE
    ../clib/microlib/init/entry.s            0x00000000   Number         0  entry11b.o ABSOLUTE
    ../clib/microlib/init/entry.s            0x00000000   Number         0  entry11a.o ABSOLUTE
    ../clib/microlib/init/entry.s            0x00000000   Number         0  entry10b.o ABSOLUTE
    ../clib/microlib/init/entry.s            0x00000000   Number         0  entry10a.o ABSOLUTE
    ../clib/microlib/init/entry.s            0x00000000   Number         0  entry9b.o ABSOLUTE
    ../clib/microlib/init/entry.s            0x00000000   Number         0  entry7b.o ABSOLUTE
    ../clib/microlib/init/entry.s            0x00000000   Number         0  entry8b.o ABSOLUTE
    ../clib/microlib/init/entry.s            0x00000000   Number         0  entry8a.o ABSOLUTE
    ../clib/microlib/init/entry.s            0x00000000   Number         0  entry7a.o ABSOLUTE
    ../clib/microlib/init/entry.s            0x00000000   Number         0  entry.o ABSOLUTE
    ../clib/microlib/init/entry.s            0x00000000   Number         0  entry5.o ABSOLUTE
    ../clib/microlib/init/entry.s            0x00000000   Number         0  entry9a.o ABSOLUTE
    ../clib/microlib/init/entry.s            0x00000000   Number         0  entry2.o ABSOLUTE
    ../clib/microlib/longlong.c              0x00000000   Number         0  llsshr.o ABSOLUTE
    ../clib/microlib/longlong.c              0x00000000   Number         0  llshl.o ABSOLUTE
    ../clib/microlib/longlong.c              0x00000000   Number         0  llushr.o ABSOLUTE
    ../clib/microlib/malloc/calloc.c         0x00000000   Number         0  calloc.o ABSOLUTE
    ../clib/microlib/malloc/malloc.c         0x00000000   Number         0  mallocra.o ABSOLUTE
    ../clib/microlib/malloc/malloc.c         0x00000000   Number         0  malloca.o ABSOLUTE
    ../clib/microlib/malloc/malloc.c         0x00000000   Number         0  malloc.o ABSOLUTE
    ../clib/microlib/malloc/malloc.c         0x00000000   Number         0  mallocr.o ABSOLUTE
    ../clib/microlib/malloc/mvars.c          0x00000000   Number         0  mvars.o ABSOLUTE
    ../clib/microlib/printf/printf.c         0x00000000   Number         0  printf5.o ABSOLUTE
    ../clib/microlib/printf/printf.c         0x00000000   Number         0  printfa.o ABSOLUTE
    ../clib/microlib/printf/printf.c         0x00000000   Number         0  printf0.o ABSOLUTE
    ../clib/microlib/printf/printf.c         0x00000000   Number         0  printf8.o ABSOLUTE
    ../clib/microlib/printf/printf.c         0x00000000   Number         0  printf4.o ABSOLUTE
    ../clib/microlib/printf/printf.c         0x00000000   Number         0  printf1.o ABSOLUTE
    ../clib/microlib/printf/printf.c         0x00000000   Number         0  printf2.o ABSOLUTE
    ../clib/microlib/printf/printf.c         0x00000000   Number         0  printf6.o ABSOLUTE
    ../clib/microlib/printf/printf.c         0x00000000   Number         0  printf7.o ABSOLUTE
    ../clib/microlib/printf/printf.c         0x00000000   Number         0  printf3.o ABSOLUTE
    ../clib/microlib/printf/printf.c         0x00000000   Number         0  printfb.o ABSOLUTE
    ../clib/microlib/printf/stubs.s          0x00000000   Number         0  stubs.o ABSOLUTE
    ../clib/microlib/stdio/fflush.c          0x00000000   Number         0  fflush.o ABSOLUTE
    ../clib/microlib/stdio/streams.c         0x00000000   Number         0  stdout.o ABSOLUTE
    ../clib/microlib/string/memcpy.c         0x00000000   Number         0  memcpyb.o ABSOLUTE
    ../clib/microlib/string/memcpy.c         0x00000000   Number         0  memmovea.o ABSOLUTE
    ../clib/microlib/string/memcpy.c         0x00000000   Number         0  memcpya.o ABSOLUTE
    ../clib/microlib/string/memcpy.c         0x00000000   Number         0  memmoveb.o ABSOLUTE
    ../clib/microlib/string/memset.c         0x00000000   Number         0  memseta.o ABSOLUTE
    ../clib/microlib/string/strlen.c         0x00000000   Number         0  strlen.o ABSOLUTE
    ../clib/microlib/stubs.s                 0x00000000   Number         0  iusefp.o ABSOLUTE
    ../fplib/microlib/fpadd.c                0x00000000   Number         0  dadd.o ABSOLUTE
    ../fplib/microlib/fpdiv.c                0x00000000   Number         0  ddiv.o ABSOLUTE
    ../fplib/microlib/fpepilogue.c           0x00000000   Number         0  depilogue.o ABSOLUTE
    ../fplib/microlib/fpfix.c                0x00000000   Number         0  dfixul.o ABSOLUTE
    ../fplib/microlib/fpmul.c                0x00000000   Number         0  dmul.o ABSOLUTE
    ..\CANopenNode\301\CO_Emergency.c        0x00000000   Number         0  co_emergency.o ABSOLUTE
    ..\CANopenNode\301\CO_HBconsumer.c       0x00000000   Number         0  co_hbconsumer.o ABSOLUTE
    ..\CANopenNode\301\CO_NMT_Heartbeat.c    0x00000000   Number         0  co_nmt_heartbeat.o ABSOLUTE
    ..\CANopenNode\301\CO_ODinterface.c      0x00000000   Number         0  co_odinterface.o ABSOLUTE
    ..\CANopenNode\301\CO_PDO.c              0x00000000   Number         0  co_pdo.o ABSOLUTE
    ..\CANopenNode\301\CO_SDOclient.c        0x00000000   Number         0  co_sdoclient.o ABSOLUTE
    ..\CANopenNode\301\CO_SDOserver.c        0x00000000   Number         0  co_sdoserver.o ABSOLUTE
    ..\CANopenNode\301\CO_SYNC.c             0x00000000   Number         0  co_sync.o ABSOLUTE
    ..\CANopenNode\301\CO_TIME.c             0x00000000   Number         0  co_time.o ABSOLUTE
    ..\CANopenNode\301\CO_fifo.c             0x00000000   Number         0  co_fifo.o ABSOLUTE
    ..\CANopenNode\301\crc16-ccitt.c         0x00000000   Number         0  crc16-ccitt.o ABSOLUTE
    ..\CANopenNode\303\CO_LEDs.c             0x00000000   Number         0  co_leds.o ABSOLUTE
    ..\CANopenNode\304\CO_GFC.c              0x00000000   Number         0  co_gfc.o ABSOLUTE
    ..\CANopenNode\304\CO_SRDO.c             0x00000000   Number         0  co_srdo.o ABSOLUTE
    ..\CANopenNode\305\CO_LSSmaster.c        0x00000000   Number         0  co_lssmaster.o ABSOLUTE
    ..\CANopenNode\305\CO_LSSslave.c         0x00000000   Number         0  co_lssslave.o ABSOLUTE
    ..\CANopenNode\309\CO_gateway_ascii.c    0x00000000   Number         0  co_gateway_ascii.o ABSOLUTE
    ..\CANopenNode\CANopen.c                 0x00000000   Number         0  canopen.o ABSOLUTE
    ..\CANopenNode\extra\CO_trace.c          0x00000000   Number         0  co_trace.o ABSOLUTE
    ..\CANopenNode\storage\CO_storage.c      0x00000000   Number         0  co_storage.o ABSOLUTE
    ..\CANopenNode\storage\CO_storageEeprom.c 0x00000000   Number         0  co_storageeeprom.o ABSOLUTE
    ..\CANopenNode_STM32\CO_app_STM32.c      0x00000000   Number         0  co_app_stm32.o ABSOLUTE
    ..\CANopenNode_STM32\CO_driver_STM32.c   0x00000000   Number         0  co_driver_stm32.o ABSOLUTE
    ..\CANopenNode_STM32\CO_storageBlank.c   0x00000000   Number         0  co_storageblank.o ABSOLUTE
    ..\CANopenNode_STM32\OD.c                0x00000000   Number         0  od.o ABSOLUTE
    ..\Core\Src\can.c                        0x00000000   Number         0  can.o ABSOLUTE
    ..\Core\Src\gpio.c                       0x00000000   Number         0  gpio.o ABSOLUTE
    ..\Core\Src\main.c                       0x00000000   Number         0  main.o ABSOLUTE
    ..\Core\Src\stm32f4xx_hal_msp.c          0x00000000   Number         0  stm32f4xx_hal_msp.o ABSOLUTE
    ..\Core\Src\stm32f4xx_hal_timebase_tim.c 0x00000000   Number         0  stm32f4xx_hal_timebase_tim.o ABSOLUTE
    ..\Core\Src\stm32f4xx_it.c               0x00000000   Number         0  stm32f4xx_it.o ABSOLUTE
    ..\Core\Src\system_stm32f4xx.c           0x00000000   Number         0  system_stm32f4xx.o ABSOLUTE
    ..\Core\Src\tim.c                        0x00000000   Number         0  tim.o ABSOLUTE
    ..\Core\Src\usart.c                      0x00000000   Number         0  usart.o ABSOLUTE
    ..\Drivers\BSP\JAWD\JAWD_SPEED.c         0x00000000   Number         0  jawd_speed.o ABSOLUTE
    ..\Drivers\BSP\JAWD\canopen_operate.c    0x00000000   Number         0  canopen_operate.o ABSOLUTE
    ..\Drivers\BSP\JAWD\key.c                0x00000000   Number         0  key.o ABSOLUTE
    ..\Drivers\BSP\JAWD\modbus_msg.c         0x00000000   Number         0  modbus_msg.o ABSOLUTE
    ..\Drivers\BSP\JAWD\modbus_slave.c       0x00000000   Number         0  modbus_slave.o ABSOLUTE
    ..\Drivers\BSP\JAWD\modbus_tim.c         0x00000000   Number         0  modbus_tim.o ABSOLUTE
    ..\Drivers\BSP\JAWD\modbus_usart.c       0x00000000   Number         0  modbus_usart.o ABSOLUTE
    ..\Drivers\BSP\JAWD\user_lib.c           0x00000000   Number         0  user_lib.o ABSOLUTE
    ..\Drivers\STM32F4xx_HAL_Driver\Src\stm32f4xx_hal.c 0x00000000   Number         0  stm32f4xx_hal.o ABSOLUTE
    ..\Drivers\STM32F4xx_HAL_Driver\Src\stm32f4xx_hal_can.c 0x00000000   Number         0  stm32f4xx_hal_can.o ABSOLUTE
    ..\Drivers\STM32F4xx_HAL_Driver\Src\stm32f4xx_hal_cortex.c 0x00000000   Number         0  stm32f4xx_hal_cortex.o ABSOLUTE
    ..\Drivers\STM32F4xx_HAL_Driver\Src\stm32f4xx_hal_dma.c 0x00000000   Number         0  stm32f4xx_hal_dma.o ABSOLUTE
    ..\Drivers\STM32F4xx_HAL_Driver\Src\stm32f4xx_hal_dma_ex.c 0x00000000   Number         0  stm32f4xx_hal_dma_ex.o ABSOLUTE
    ..\Drivers\STM32F4xx_HAL_Driver\Src\stm32f4xx_hal_exti.c 0x00000000   Number         0  stm32f4xx_hal_exti.o ABSOLUTE
    ..\Drivers\STM32F4xx_HAL_Driver\Src\stm32f4xx_hal_flash.c 0x00000000   Number         0  stm32f4xx_hal_flash.o ABSOLUTE
    ..\Drivers\STM32F4xx_HAL_Driver\Src\stm32f4xx_hal_flash_ex.c 0x00000000   Number         0  stm32f4xx_hal_flash_ex.o ABSOLUTE
    ..\Drivers\STM32F4xx_HAL_Driver\Src\stm32f4xx_hal_flash_ramfunc.c 0x00000000   Number         0  stm32f4xx_hal_flash_ramfunc.o ABSOLUTE
    ..\Drivers\STM32F4xx_HAL_Driver\Src\stm32f4xx_hal_gpio.c 0x00000000   Number         0  stm32f4xx_hal_gpio.o ABSOLUTE
    ..\Drivers\STM32F4xx_HAL_Driver\Src\stm32f4xx_hal_pwr.c 0x00000000   Number         0  stm32f4xx_hal_pwr.o ABSOLUTE
    ..\Drivers\STM32F4xx_HAL_Driver\Src\stm32f4xx_hal_pwr_ex.c 0x00000000   Number         0  stm32f4xx_hal_pwr_ex.o ABSOLUTE
    ..\Drivers\STM32F4xx_HAL_Driver\Src\stm32f4xx_hal_rcc.c 0x00000000   Number         0  stm32f4xx_hal_rcc.o ABSOLUTE
    ..\Drivers\STM32F4xx_HAL_Driver\Src\stm32f4xx_hal_rcc_ex.c 0x00000000   Number         0  stm32f4xx_hal_rcc_ex.o ABSOLUTE
    ..\Drivers\STM32F4xx_HAL_Driver\Src\stm32f4xx_hal_tim.c 0x00000000   Number         0  stm32f4xx_hal_tim.o ABSOLUTE
    ..\Drivers\STM32F4xx_HAL_Driver\Src\stm32f4xx_hal_tim_ex.c 0x00000000   Number         0  stm32f4xx_hal_tim_ex.o ABSOLUTE
    ..\Drivers\STM32F4xx_HAL_Driver\Src\stm32f4xx_hal_uart.c 0x00000000   Number         0  stm32f4xx_hal_uart.o ABSOLUTE
    ..\\CANopenNode\\301\\CO_Emergency.c     0x00000000   Number         0  co_emergency.o ABSOLUTE
    ..\\CANopenNode\\301\\CO_HBconsumer.c    0x00000000   Number         0  co_hbconsumer.o ABSOLUTE
    ..\\CANopenNode\\301\\CO_NMT_Heartbeat.c 0x00000000   Number         0  co_nmt_heartbeat.o ABSOLUTE
    ..\\CANopenNode\\301\\CO_ODinterface.c   0x00000000   Number         0  co_odinterface.o ABSOLUTE
    ..\\CANopenNode\\301\\CO_PDO.c           0x00000000   Number         0  co_pdo.o ABSOLUTE
    ..\\CANopenNode\\301\\CO_SDOclient.c     0x00000000   Number         0  co_sdoclient.o ABSOLUTE
    ..\\CANopenNode\\301\\CO_SDOserver.c     0x00000000   Number         0  co_sdoserver.o ABSOLUTE
    ..\\CANopenNode\\301\\CO_SYNC.c          0x00000000   Number         0  co_sync.o ABSOLUTE
    ..\\CANopenNode\\301\\CO_TIME.c          0x00000000   Number         0  co_time.o ABSOLUTE
    ..\\CANopenNode\\301\\CO_fifo.c          0x00000000   Number         0  co_fifo.o ABSOLUTE
    ..\\CANopenNode\\301\\crc16-ccitt.c      0x00000000   Number         0  crc16-ccitt.o ABSOLUTE
    ..\\CANopenNode\\303\\CO_LEDs.c          0x00000000   Number         0  co_leds.o ABSOLUTE
    ..\\CANopenNode\\304\\CO_GFC.c           0x00000000   Number         0  co_gfc.o ABSOLUTE
    ..\\CANopenNode\\304\\CO_SRDO.c          0x00000000   Number         0  co_srdo.o ABSOLUTE
    ..\\CANopenNode\\305\\CO_LSSmaster.c     0x00000000   Number         0  co_lssmaster.o ABSOLUTE
    ..\\CANopenNode\\305\\CO_LSSslave.c      0x00000000   Number         0  co_lssslave.o ABSOLUTE
    ..\\CANopenNode\\309\\CO_gateway_ascii.c 0x00000000   Number         0  co_gateway_ascii.o ABSOLUTE
    ..\\CANopenNode\\CANopen.c               0x00000000   Number         0  canopen.o ABSOLUTE
    ..\\CANopenNode\\extra\\CO_trace.c       0x00000000   Number         0  co_trace.o ABSOLUTE
    ..\\CANopenNode\\storage\\CO_storage.c   0x00000000   Number         0  co_storage.o ABSOLUTE
    ..\\CANopenNode\\storage\\CO_storageEeprom.c 0x00000000   Number         0  co_storageeeprom.o ABSOLUTE
    ..\\CANopenNode_STM32\\CO_app_STM32.c    0x00000000   Number         0  co_app_stm32.o ABSOLUTE
    ..\\CANopenNode_STM32\\CO_driver_STM32.c 0x00000000   Number         0  co_driver_stm32.o ABSOLUTE
    ..\\CANopenNode_STM32\\CO_storageBlank.c 0x00000000   Number         0  co_storageblank.o ABSOLUTE
    ..\\CANopenNode_STM32\\OD.c              0x00000000   Number         0  od.o ABSOLUTE
    ..\\Drivers\\BSP\\JAWD\\JAWD_SPEED.c     0x00000000   Number         0  jawd_speed.o ABSOLUTE
    ..\\Drivers\\BSP\\JAWD\\canopen_operate.c 0x00000000   Number         0  canopen_operate.o ABSOLUTE
    ..\\Drivers\\BSP\\JAWD\\key.c            0x00000000   Number         0  key.o ABSOLUTE
    ..\\Drivers\\BSP\\JAWD\\modbus_slave.c   0x00000000   Number         0  modbus_slave.o ABSOLUTE
    ..\\Drivers\\BSP\\JAWD\\modbus_tim.c     0x00000000   Number         0  modbus_tim.o ABSOLUTE
    ..\\Drivers\\BSP\\JAWD\\modbus_usart.c   0x00000000   Number         0  modbus_usart.o ABSOLUTE
    D:\Keil_v5\PACK\Keil\ARM_Compiler\1.4.0\Source\EventRecorder.c 0x00000000   Number         0  eventrecorder.o ABSOLUTE
    D:\\Keil_v5\\PACK\\Keil\\ARM_Compiler\\1.4.0\\Source\\EventRecorder.c 0x00000000   Number         0  eventrecorder.o ABSOLUTE
    cdrcmple.s                               0x00000000   Number         0  cdrcmple.o ABSOLUTE
    dc.s                                     0x00000000   Number         0  dc.o ABSOLUTE
    handlers.s                               0x00000000   Number         0  handlers.o ABSOLUTE
    init.s                                   0x00000000   Number         0  init.o ABSOLUTE
    startup_stm32f407xx.s                    0x00000000   Number         0  startup_stm32f407xx.o ABSOLUTE
    RESET                                    0x08000000   Section      392  startup_stm32f407xx.o(RESET)
    .ARM.Collect$$$$00000000                 0x08000188   Section        0  entry.o(.ARM.Collect$$$$00000000)
    .ARM.Collect$$$$00000001                 0x08000188   Section        4  entry2.o(.ARM.Collect$$$$00000001)
    .ARM.Collect$$$$00000004                 0x0800018c   Section        4  entry5.o(.ARM.Collect$$$$00000004)
    .ARM.Collect$$$$00000008                 0x08000190   Section        0  entry7b.o(.ARM.Collect$$$$00000008)
    .ARM.Collect$$$$0000000A                 0x08000190   Section        0  entry8b.o(.ARM.Collect$$$$0000000A)
    .ARM.Collect$$$$0000000B                 0x08000190   Section        8  entry9a.o(.ARM.Collect$$$$0000000B)
    .ARM.Collect$$$$0000000D                 0x08000198   Section        0  entry10a.o(.ARM.Collect$$$$0000000D)
    .ARM.Collect$$$$0000000F                 0x08000198   Section        0  entry11a.o(.ARM.Collect$$$$0000000F)
    .ARM.Collect$$$$00002712                 0x08000198   Section        4  entry2.o(.ARM.Collect$$$$00002712)
    __lit__00000000                          0x08000198   Data           4  entry2.o(.ARM.Collect$$$$00002712)
    .text                                    0x0800019c   Section       36  startup_stm32f407xx.o(.text)
    $v0                                      0x0800019c   Number         0  startup_stm32f407xx.o(.text)
    .text                                    0x080001c0   Section        0  uldiv.o(.text)
    .text                                    0x08000222   Section        0  memmovea.o(.text)
    .text                                    0x08000262   Section        0  memseta.o(.text)
    .text                                    0x08000286   Section        0  strlen.o(.text)
    .text                                    0x08000294   Section        0  calloc.o(.text)
    .text                                    0x080002b0   Section        0  llshl.o(.text)
    .text                                    0x080002ce   Section        0  llushr.o(.text)
    .text                                    0x080002f0   Section       36  init.o(.text)
    .text                                    0x08000314   Section        0  __dczerorl2.o(.text)
    i.BEBufToUint16                          0x0800036a   Section        0  user_lib.o(i.BEBufToUint16)
    i.BusFault_Handler                       0x08000376   Section        0  stm32f4xx_it.o(i.BusFault_Handler)
    i.CAN1_RX0_IRQHandler                    0x0800037c   Section        0  stm32f4xx_it.o(i.CAN1_RX0_IRQHandler)
    i.CAN1_RX1_IRQHandler                    0x0800038c   Section        0  stm32f4xx_it.o(i.CAN1_RX1_IRQHandler)
    i.CAN1_TX_IRQHandler                     0x0800039c   Section        0  stm32f4xx_it.o(i.CAN1_TX_IRQHandler)
    i.CO_CANclearPendingSyncPDOs             0x080003ac   Section        0  co_driver_stm32.o(i.CO_CANclearPendingSyncPDOs)
    i.CO_CANinit                             0x08000420   Section        0  canopen.o(i.CO_CANinit)
    i.CO_CANinterrupt_TX                     0x08000456   Section        0  co_driver_stm32.o(i.CO_CANinterrupt_TX)
    i.CO_CANmodule_disable                   0x080004b6   Section        0  co_driver_stm32.o(i.CO_CANmodule_disable)
    i.CO_CANmodule_init                      0x080004cc   Section        0  co_driver_stm32.o(i.CO_CANmodule_init)
    i.CO_CANmodule_process                   0x080005d0   Section        0  co_driver_stm32.o(i.CO_CANmodule_process)
    i.CO_CANopenInit                         0x08000618   Section        0  canopen.o(i.CO_CANopenInit)
    i.CO_CANopenInitPDO                      0x0800084c   Section        0  canopen.o(i.CO_CANopenInitPDO)
    i.CO_CANrxBufferInit                     0x0800097c   Section        0  co_driver_stm32.o(i.CO_CANrxBufferInit)
    i.CO_CANsend                             0x080009e4   Section        0  co_driver_stm32.o(i.CO_CANsend)
    i.CO_CANsetConfigurationMode             0x08000a34   Section        0  co_driver_stm32.o(i.CO_CANsetConfigurationMode)
    i.CO_CANsetNormalMode                    0x08000a42   Section        0  co_driver_stm32.o(i.CO_CANsetNormalMode)
    i.CO_CANtxBufferInit                     0x08000a5a   Section        0  co_driver_stm32.o(i.CO_CANtxBufferInit)
    i.CO_EM_init                             0x08000a98   Section        0  co_emergency.o(i.CO_EM_init)
    i.CO_EM_process                          0x08000be8   Section        0  co_emergency.o(i.CO_EM_process)
    i.CO_HBcons_receive                      0x08000d8e   Section        0  co_hbconsumer.o(i.CO_HBcons_receive)
    CO_HBcons_receive                        0x08000d8f   Thumb Code    28  co_hbconsumer.o(i.CO_HBcons_receive)
    i.CO_HBconsumer_init                     0x08000dac   Section        0  co_hbconsumer.o(i.CO_HBconsumer_init)
    i.CO_HBconsumer_initEntry                0x08000ec0   Section        0  co_hbconsumer.o(i.CO_HBconsumer_initEntry)
    CO_HBconsumer_initEntry                  0x08000ec1   Thumb Code   206  co_hbconsumer.o(i.CO_HBconsumer_initEntry)
    i.CO_HBconsumer_process                  0x08000f94   Section        0  co_hbconsumer.o(i.CO_HBconsumer_process)
    i.CO_LEDs_init                           0x080010b0   Section        0  co_leds.o(i.CO_LEDs_init)
    i.CO_LEDs_process                        0x080010c6   Section        0  co_leds.o(i.CO_LEDs_process)
    i.CO_LSSinit                             0x08001330   Section        0  canopen.o(i.CO_LSSinit)
    i.CO_LSSslave_init                       0x08001378   Section        0  co_lssslave.o(i.CO_LSSslave_init)
    i.CO_LSSslave_process                    0x0800142c   Section        0  co_lssslave.o(i.CO_LSSslave_process)
    i.CO_LSSslave_receive                    0x0800162c   Section        0  co_lssslave.o(i.CO_LSSslave_receive)
    CO_LSSslave_receive                      0x0800162d   Thumb Code   420  co_lssslave.o(i.CO_LSSslave_receive)
    i.CO_NMT_getInternalState                0x080017d0   Section        0  canopen.o(i.CO_NMT_getInternalState)
    CO_NMT_getInternalState                  0x080017d1   Thumb Code    14  canopen.o(i.CO_NMT_getInternalState)
    i.CO_NMT_init                            0x080017e0   Section        0  co_nmt_heartbeat.o(i.CO_NMT_init)
    i.CO_NMT_process                         0x08001934   Section        0  co_nmt_heartbeat.o(i.CO_NMT_process)
    i.CO_NMT_receive                         0x08001a78   Section        0  co_nmt_heartbeat.o(i.CO_NMT_receive)
    CO_NMT_receive                           0x08001a79   Thumb Code    28  co_nmt_heartbeat.o(i.CO_NMT_receive)
    i.CO_NMT_sendCommand                     0x08001a94   Section        0  co_nmt_heartbeat.o(i.CO_NMT_sendCommand)
    i.CO_PDO_receive                         0x08001ac0   Section        0  co_pdo.o(i.CO_PDO_receive)
    CO_PDO_receive                           0x08001ac1   Thumb Code   142  co_pdo.o(i.CO_PDO_receive)
    i.CO_RPDO_init                           0x08001b50   Section        0  co_pdo.o(i.CO_RPDO_init)
    i.CO_RPDO_process                        0x08001d34   Section        0  co_pdo.o(i.CO_RPDO_process)
    i.CO_SDO_receive                         0x08001efa   Section        0  co_sdoserver.o(i.CO_SDO_receive)
    CO_SDO_receive                           0x08001efb   Thumb Code    62  co_sdoserver.o(i.CO_SDO_receive)
    i.CO_SDOclientDownload                   0x08001f38   Section        0  co_sdoclient.o(i.CO_SDOclientDownload)
    i.CO_SDOclientDownloadBufWrite           0x08002194   Section        0  co_sdoclient.o(i.CO_SDOclientDownloadBufWrite)
    i.CO_SDOclientDownloadInitiate           0x080021ba   Section        0  co_sdoclient.o(i.CO_SDOclientDownloadInitiate)
    i.CO_SDOclientUpload                     0x0800220c   Section        0  co_sdoclient.o(i.CO_SDOclientUpload)
    i.CO_SDOclientUploadBufRead              0x08002438   Section        0  co_sdoclient.o(i.CO_SDOclientUploadBufRead)
    i.CO_SDOclientUploadInitiate             0x0800245e   Section        0  co_sdoclient.o(i.CO_SDOclientUploadInitiate)
    i.CO_SDOclient_init                      0x080024ae   Section        0  co_sdoclient.o(i.CO_SDOclient_init)
    i.CO_SDOclient_receive                   0x08002596   Section        0  co_sdoclient.o(i.CO_SDOclient_receive)
    CO_SDOclient_receive                     0x08002597   Thumb Code    48  co_sdoclient.o(i.CO_SDOclient_receive)
    i.CO_SDOclient_setup                     0x080025c8   Section        0  co_sdoclient.o(i.CO_SDOclient_setup)
    i.CO_SDOserver_init                      0x08002674   Section        0  co_sdoserver.o(i.CO_SDOserver_init)
    i.CO_SDOserver_init_canRxTx              0x08002828   Section        0  co_sdoserver.o(i.CO_SDOserver_init_canRxTx)
    CO_SDOserver_init_canRxTx                0x08002829   Thumb Code   160  co_sdoserver.o(i.CO_SDOserver_init_canRxTx)
    i.CO_SDOserver_process                   0x080028cc   Section        0  co_sdoserver.o(i.CO_SDOserver_process)
    i.CO_SYNC_init                           0x08002f08   Section        0  co_sync.o(i.CO_SYNC_init)
    i.CO_SYNC_process                        0x080030d8   Section        0  co_sync.o(i.CO_SYNC_process)
    i.CO_SYNC_receive                        0x0800320a   Section        0  co_sync.o(i.CO_SYNC_receive)
    CO_SYNC_receive                          0x0800320b   Thumb Code    74  co_sync.o(i.CO_SYNC_receive)
    i.CO_TIME_init                           0x08003254   Section        0  co_time.o(i.CO_TIME_init)
    i.CO_TIME_process                        0x08003328   Section        0  co_time.o(i.CO_TIME_process)
    i.CO_TIME_receive                        0x080033c0   Section        0  co_time.o(i.CO_TIME_receive)
    CO_TIME_receive                          0x080033c1   Thumb Code    30  co_time.o(i.CO_TIME_receive)
    i.CO_TPDO_init                           0x080033e0   Section        0  co_pdo.o(i.CO_TPDO_init)
    i.CO_TPDO_process                        0x08003610   Section        0  co_pdo.o(i.CO_TPDO_process)
    i.CO_TPDOsend                            0x0800377a   Section        0  co_pdo.o(i.CO_TPDOsend)
    CO_TPDOsend                              0x0800377b   Thumb Code   216  co_pdo.o(i.CO_TPDOsend)
    i.CO_delete                              0x08003852   Section        0  canopen.o(i.CO_delete)
    i.CO_error                               0x080038ca   Section        0  co_emergency.o(i.CO_error)
    i.CO_fifo_init                           0x080039ac   Section        0  co_fifo.o(i.CO_fifo_init)
    i.CO_fifo_read                           0x080039c4   Section        0  co_fifo.o(i.CO_fifo_read)
    i.CO_fifo_reset                          0x08003a20   Section        0  co_sdoclient.o(i.CO_fifo_reset)
    CO_fifo_reset                            0x08003a21   Thumb Code    10  co_sdoclient.o(i.CO_fifo_reset)
    i.CO_fifo_write                          0x08003a2a   Section        0  co_fifo.o(i.CO_fifo_write)
    i.CO_getUint16                           0x08003a86   Section        0  co_pdo.o(i.CO_getUint16)
    CO_getUint16                             0x08003a87   Thumb Code    20  co_pdo.o(i.CO_getUint16)
    i.CO_getUint32                           0x08003a9a   Section        0  co_pdo.o(i.CO_getUint32)
    CO_getUint32                             0x08003a9b   Thumb Code    18  co_pdo.o(i.CO_getUint32)
    i.CO_getUint32                           0x08003aac   Section        0  co_sdoserver.o(i.CO_getUint32)
    CO_getUint32                             0x08003aad   Thumb Code    18  co_sdoserver.o(i.CO_getUint32)
    i.CO_getUint32                           0x08003abe   Section        0  co_time.o(i.CO_getUint32)
    CO_getUint32                             0x08003abf   Thumb Code    18  co_time.o(i.CO_getUint32)
    i.CO_getUint8                            0x08003ad0   Section        0  co_pdo.o(i.CO_getUint8)
    CO_getUint8                              0x08003ad1   Thumb Code    20  co_pdo.o(i.CO_getUint8)
    i.CO_isError                             0x08003ae4   Section        0  co_nmt_heartbeat.o(i.CO_isError)
    CO_isError                               0x08003ae5   Thumb Code    36  co_nmt_heartbeat.o(i.CO_isError)
    i.CO_isError                             0x08003b08   Section        0  canopen.o(i.CO_isError)
    CO_isError                               0x08003b09   Thumb Code    36  canopen.o(i.CO_isError)
    i.CO_new                                 0x08003b2c   Section        0  canopen.o(i.CO_new)
    i.CO_process                             0x08003ca8   Section        0  canopen.o(i.CO_process)
    i.CO_process_RPDO                        0x08003e12   Section        0  canopen.o(i.CO_process_RPDO)
    i.CO_process_SYNC                        0x08003e62   Section        0  canopen.o(i.CO_process_SYNC)
    i.CO_process_TPDO                        0x08003ec8   Section        0  canopen.o(i.CO_process_TPDO)
    i.CO_setUint32                           0x08003f14   Section        0  co_emergency.o(i.CO_setUint32)
    CO_setUint32                             0x08003f15   Thumb Code    18  co_emergency.o(i.CO_setUint32)
    i.CO_setUint32                           0x08003f26   Section        0  co_pdo.o(i.CO_setUint32)
    CO_setUint32                             0x08003f27   Thumb Code    18  co_pdo.o(i.CO_setUint32)
    i.CRC16_Modbus                           0x08003f38   Section        0  user_lib.o(i.CRC16_Modbus)
    i.ComToUart                              0x08003f70   Section        0  modbus_usart.o(i.ComToUart)
    i.DebugMon_Handler                       0x08003f84   Section        0  stm32f4xx_it.o(i.DebugMon_Handler)
    i.EXTI15_10_IRQHandler                   0x08003f86   Section        0  stm32f4xx_it.o(i.EXTI15_10_IRQHandler)
    i.EXTI9_5_IRQHandler                     0x08003fa2   Section        0  stm32f4xx_it.o(i.EXTI9_5_IRQHandler)
    i.Error_Handler                          0x08003fae   Section        0  main.o(i.Error_Handler)
    i.EventGetTS                             0x08003fb4   Section        0  eventrecorder.o(i.EventGetTS)
    EventGetTS                               0x08003fb5   Thumb Code    40  eventrecorder.o(i.EventGetTS)
    i.EventRecordItem                        0x08003fe0   Section        0  eventrecorder.o(i.EventRecordItem)
    EventRecordItem                          0x08003fe1   Thumb Code   268  eventrecorder.o(i.EventRecordItem)
    i.EventRecorderEnable                    0x080040f4   Section        0  eventrecorder.o(i.EventRecorderEnable)
    i.EventRecorderInitialize                0x08004150   Section        0  eventrecorder.o(i.EventRecorderInitialize)
    i.EventRecorderStart                     0x0800423c   Section        0  eventrecorder.o(i.EventRecorderStart)
    i.EventRecorderTimerGet                  0x0800426c   Section        0  eventrecorder.o(i.EventRecorderTimerGet)
    i.EventRecorderTimerInit                 0x08004278   Section        0  eventrecorder.o(i.EventRecorderTimerInit)
    i.HAL_CAN_ActivateNotification           0x080042a4   Section        0  stm32f4xx_hal_can.o(i.HAL_CAN_ActivateNotification)
    i.HAL_CAN_AddTxMessage                   0x080042ce   Section        0  stm32f4xx_hal_can.o(i.HAL_CAN_AddTxMessage)
    i.HAL_CAN_ConfigFilter                   0x08004424   Section        0  stm32f4xx_hal_can.o(i.HAL_CAN_ConfigFilter)
    i.HAL_CAN_ErrorCallback                  0x08004548   Section        0  stm32f4xx_hal_can.o(i.HAL_CAN_ErrorCallback)
    i.HAL_CAN_GetRxMessage                   0x0800454a   Section        0  stm32f4xx_hal_can.o(i.HAL_CAN_GetRxMessage)
    i.HAL_CAN_GetTxMailboxesFreeLevel        0x080046c4   Section        0  stm32f4xx_hal_can.o(i.HAL_CAN_GetTxMailboxesFreeLevel)
    i.HAL_CAN_IRQHandler                     0x080046fa   Section        0  stm32f4xx_hal_can.o(i.HAL_CAN_IRQHandler)
    i.HAL_CAN_Init                           0x08004948   Section        0  stm32f4xx_hal_can.o(i.HAL_CAN_Init)
    i.HAL_CAN_MspInit                        0x08004abc   Section        0  can.o(i.HAL_CAN_MspInit)
    i.HAL_CAN_RxFifo0FullCallback            0x08004b74   Section        0  stm32f4xx_hal_can.o(i.HAL_CAN_RxFifo0FullCallback)
    i.HAL_CAN_RxFifo0MsgPendingCallback      0x08004b76   Section        0  co_driver_stm32.o(i.HAL_CAN_RxFifo0MsgPendingCallback)
    i.HAL_CAN_RxFifo1FullCallback            0x08004b86   Section        0  stm32f4xx_hal_can.o(i.HAL_CAN_RxFifo1FullCallback)
    i.HAL_CAN_RxFifo1MsgPendingCallback      0x08004b88   Section        0  co_driver_stm32.o(i.HAL_CAN_RxFifo1MsgPendingCallback)
    i.HAL_CAN_SleepCallback                  0x08004b98   Section        0  stm32f4xx_hal_can.o(i.HAL_CAN_SleepCallback)
    i.HAL_CAN_Start                          0x08004b9a   Section        0  stm32f4xx_hal_can.o(i.HAL_CAN_Start)
    i.HAL_CAN_Stop                           0x08004bf8   Section        0  stm32f4xx_hal_can.o(i.HAL_CAN_Stop)
    i.HAL_CAN_TxMailbox0AbortCallback        0x08004c62   Section        0  stm32f4xx_hal_can.o(i.HAL_CAN_TxMailbox0AbortCallback)
    i.HAL_CAN_TxMailbox0CompleteCallback     0x08004c64   Section        0  co_driver_stm32.o(i.HAL_CAN_TxMailbox0CompleteCallback)
    i.HAL_CAN_TxMailbox1AbortCallback        0x08004c78   Section        0  stm32f4xx_hal_can.o(i.HAL_CAN_TxMailbox1AbortCallback)
    i.HAL_CAN_TxMailbox1CompleteCallback     0x08004c7c   Section        0  co_driver_stm32.o(i.HAL_CAN_TxMailbox1CompleteCallback)
    i.HAL_CAN_TxMailbox2AbortCallback        0x08004c90   Section        0  stm32f4xx_hal_can.o(i.HAL_CAN_TxMailbox2AbortCallback)
    i.HAL_CAN_TxMailbox2CompleteCallback     0x08004c94   Section        0  co_driver_stm32.o(i.HAL_CAN_TxMailbox2CompleteCallback)
    i.HAL_CAN_WakeUpFromRxMsgCallback        0x08004ca8   Section        0  stm32f4xx_hal_can.o(i.HAL_CAN_WakeUpFromRxMsgCallback)
    i.HAL_DMA_Abort                          0x08004caa   Section        0  stm32f4xx_hal_dma.o(i.HAL_DMA_Abort)
    i.HAL_DMA_Abort_IT                       0x08004d56   Section        0  stm32f4xx_hal_dma.o(i.HAL_DMA_Abort_IT)
    i.HAL_Delay                              0x08004d80   Section        0  stm32f4xx_hal.o(i.HAL_Delay)
    i.HAL_GPIO_EXTI_Callback                 0x08004da8   Section        0  key.o(i.HAL_GPIO_EXTI_Callback)
    i.HAL_GPIO_EXTI_IRQHandler               0x08004e18   Section        0  stm32f4xx_hal_gpio.o(i.HAL_GPIO_EXTI_IRQHandler)
    i.HAL_GPIO_Init                          0x08004e34   Section        0  stm32f4xx_hal_gpio.o(i.HAL_GPIO_Init)
    i.HAL_GPIO_ReadPin                       0x08005024   Section        0  stm32f4xx_hal_gpio.o(i.HAL_GPIO_ReadPin)
    i.HAL_GPIO_WritePin                      0x08005034   Section        0  stm32f4xx_hal_gpio.o(i.HAL_GPIO_WritePin)
    i.HAL_GetTick                            0x08005040   Section        0  stm32f4xx_hal.o(i.HAL_GetTick)
    i.HAL_IncTick                            0x0800504c   Section        0  stm32f4xx_hal.o(i.HAL_IncTick)
    i.HAL_Init                               0x08005064   Section        0  stm32f4xx_hal.o(i.HAL_Init)
    i.HAL_InitTick                           0x080050a0   Section        0  stm32f4xx_hal_timebase_tim.o(i.HAL_InitTick)
    i.HAL_MspInit                            0x0800512c   Section        0  stm32f4xx_hal_msp.o(i.HAL_MspInit)
    i.HAL_NVIC_EnableIRQ                     0x08005174   Section        0  stm32f4xx_hal_cortex.o(i.HAL_NVIC_EnableIRQ)
    i.HAL_NVIC_SetPriority                   0x08005194   Section        0  stm32f4xx_hal_cortex.o(i.HAL_NVIC_SetPriority)
    i.HAL_NVIC_SetPriorityGrouping           0x08005210   Section        0  stm32f4xx_hal_cortex.o(i.HAL_NVIC_SetPriorityGrouping)
    i.HAL_NVIC_SystemReset                   0x08005238   Section        0  stm32f4xx_hal_cortex.o(i.HAL_NVIC_SystemReset)
    i.HAL_RCC_ClockConfig                    0x0800527c   Section        0  stm32f4xx_hal_rcc.o(i.HAL_RCC_ClockConfig)
    i.HAL_RCC_GetClockConfig                 0x08005400   Section        0  stm32f4xx_hal_rcc.o(i.HAL_RCC_GetClockConfig)
    i.HAL_RCC_GetHCLKFreq                    0x08005444   Section        0  stm32f4xx_hal_rcc.o(i.HAL_RCC_GetHCLKFreq)
    i.HAL_RCC_GetPCLK1Freq                   0x08005450   Section        0  stm32f4xx_hal_rcc.o(i.HAL_RCC_GetPCLK1Freq)
    i.HAL_RCC_GetPCLK2Freq                   0x08005470   Section        0  stm32f4xx_hal_rcc.o(i.HAL_RCC_GetPCLK2Freq)
    i.HAL_RCC_GetSysClockFreq                0x08005490   Section        0  stm32f4xx_hal_rcc.o(i.HAL_RCC_GetSysClockFreq)
    i.HAL_RCC_OscConfig                      0x08005540   Section        0  stm32f4xx_hal_rcc.o(i.HAL_RCC_OscConfig)
    i.HAL_TIMEx_BreakCallback                0x080059dc   Section        0  stm32f4xx_hal_tim_ex.o(i.HAL_TIMEx_BreakCallback)
    i.HAL_TIMEx_CommutCallback               0x080059de   Section        0  stm32f4xx_hal_tim_ex.o(i.HAL_TIMEx_CommutCallback)
    i.HAL_TIMEx_MasterConfigSynchronization  0x080059e0   Section        0  stm32f4xx_hal_tim_ex.o(i.HAL_TIMEx_MasterConfigSynchronization)
    i.HAL_TIM_Base_Init                      0x08005a94   Section        0  stm32f4xx_hal_tim.o(i.HAL_TIM_Base_Init)
    i.HAL_TIM_Base_MspInit                   0x08005afc   Section        0  tim.o(i.HAL_TIM_Base_MspInit)
    i.HAL_TIM_Base_Start                     0x08005b44   Section        0  stm32f4xx_hal_tim.o(i.HAL_TIM_Base_Start)
    i.HAL_TIM_Base_Start_IT                  0x08005be0   Section        0  stm32f4xx_hal_tim.o(i.HAL_TIM_Base_Start_IT)
    i.HAL_TIM_Base_Stop_IT                   0x08005c88   Section        0  stm32f4xx_hal_tim.o(i.HAL_TIM_Base_Stop_IT)
    i.HAL_TIM_IC_CaptureCallback             0x08005cc6   Section        0  stm32f4xx_hal_tim.o(i.HAL_TIM_IC_CaptureCallback)
    i.HAL_TIM_IRQHandler                     0x08005cc8   Section        0  stm32f4xx_hal_tim.o(i.HAL_TIM_IRQHandler)
    i.HAL_TIM_OC_DelayElapsedCallback        0x08005e5e   Section        0  stm32f4xx_hal_tim.o(i.HAL_TIM_OC_DelayElapsedCallback)
    i.HAL_TIM_PWM_PulseFinishedCallback      0x08005e60   Section        0  stm32f4xx_hal_tim.o(i.HAL_TIM_PWM_PulseFinishedCallback)
    i.HAL_TIM_PeriodElapsedCallback          0x08005e64   Section        0  main.o(i.HAL_TIM_PeriodElapsedCallback)
    i.HAL_TIM_TriggerCallback                0x08005e8c   Section        0  stm32f4xx_hal_tim.o(i.HAL_TIM_TriggerCallback)
    i.HAL_UARTEx_RxEventCallback             0x08005e8e   Section        0  stm32f4xx_hal_uart.o(i.HAL_UARTEx_RxEventCallback)
    i.HAL_UART_ErrorCallback                 0x08005e90   Section        0  stm32f4xx_hal_uart.o(i.HAL_UART_ErrorCallback)
    i.HAL_UART_IRQHandler                    0x08005e94   Section        0  stm32f4xx_hal_uart.o(i.HAL_UART_IRQHandler)
    i.HAL_UART_Init                          0x08006174   Section        0  stm32f4xx_hal_uart.o(i.HAL_UART_Init)
    i.HAL_UART_MspInit                       0x080061e8   Section        0  usart.o(i.HAL_UART_MspInit)
    i.HAL_UART_RxCpltCallback                0x08006280   Section        0  stm32f4xx_hal_uart.o(i.HAL_UART_RxCpltCallback)
    i.HAL_UART_Transmit                      0x08006282   Section        0  stm32f4xx_hal_uart.o(i.HAL_UART_Transmit)
    i.HAL_UART_TxCpltCallback                0x08006354   Section        0  stm32f4xx_hal_uart.o(i.HAL_UART_TxCpltCallback)
    i.HardFault_Handler                      0x08006356   Section        0  stm32f4xx_it.o(i.HardFault_Handler)
    i.InitHardUart                           0x0800635c   Section        0  modbus_usart.o(i.InitHardUart)
    InitHardUart                             0x0800635d   Thumb Code   220  modbus_usart.o(i.InitHardUart)
    i.MODS_01H                               0x08006444   Section        0  modbus_slave.o(i.MODS_01H)
    MODS_01H                                 0x08006445   Thumb Code   424  modbus_slave.o(i.MODS_01H)
    i.MODS_02H                               0x080065f4   Section        0  modbus_slave.o(i.MODS_02H)
    MODS_02H                                 0x080065f5   Thumb Code   270  modbus_slave.o(i.MODS_02H)
    i.MODS_03H                               0x08006708   Section        0  modbus_slave.o(i.MODS_03H)
    MODS_03H                                 0x08006709   Thumb Code   298  modbus_slave.o(i.MODS_03H)
    i.MODS_04H                               0x08006838   Section        0  modbus_slave.o(i.MODS_04H)
    MODS_04H                                 0x08006839   Thumb Code   326  modbus_slave.o(i.MODS_04H)
    i.MODS_05H                               0x08006988   Section        0  modbus_slave.o(i.MODS_05H)
    MODS_05H                                 0x08006989   Thumb Code   186  modbus_slave.o(i.MODS_05H)
    i.MODS_06H                               0x08006a4c   Section        0  modbus_slave.o(i.MODS_06H)
    MODS_06H                                 0x08006a4d   Thumb Code    94  modbus_slave.o(i.MODS_06H)
    i.MODS_10H                               0x08006ab0   Section        0  modbus_slave.o(i.MODS_10H)
    MODS_10H                                 0x08006ab1   Thumb Code   136  modbus_slave.o(i.MODS_10H)
    i.MODS_AnalyzeApp                        0x08006b3c   Section        0  modbus_slave.o(i.MODS_AnalyzeApp)
    MODS_AnalyzeApp                          0x08006b3d   Thumb Code   160  modbus_slave.o(i.MODS_AnalyzeApp)
    i.MODS_Poll                              0x08006be0   Section        0  modbus_slave.o(i.MODS_Poll)
    i.MODS_ReadRegValue                      0x08006c2c   Section        0  modbus_slave.o(i.MODS_ReadRegValue)
    MODS_ReadRegValue                        0x08006c2d   Thumb Code   178  modbus_slave.o(i.MODS_ReadRegValue)
    i.MODS_ReciveNew                         0x08006ce4   Section        0  modbus_slave.o(i.MODS_ReciveNew)
    i.MODS_RxTimeOut                         0x08006d44   Section        0  modbus_slave.o(i.MODS_RxTimeOut)
    MODS_RxTimeOut                           0x08006d45   Thumb Code     8  modbus_slave.o(i.MODS_RxTimeOut)
    i.MODS_SendAckErr                        0x08006d50   Section        0  modbus_slave.o(i.MODS_SendAckErr)
    MODS_SendAckErr                          0x08006d51   Thumb Code    38  modbus_slave.o(i.MODS_SendAckErr)
    i.MODS_SendAckOk                         0x08006d7c   Section        0  modbus_slave.o(i.MODS_SendAckOk)
    MODS_SendAckOk                           0x08006d7d   Thumb Code    32  modbus_slave.o(i.MODS_SendAckOk)
    i.MODS_SendWithCRC                       0x08006da0   Section        0  modbus_slave.o(i.MODS_SendWithCRC)
    MODS_SendWithCRC                         0x08006da1   Thumb Code    64  modbus_slave.o(i.MODS_SendWithCRC)
    i.MODS_WriteRegValue                     0x08006de0   Section        0  modbus_slave.o(i.MODS_WriteRegValue)
    MODS_WriteRegValue                       0x08006de1   Thumb Code   132  modbus_slave.o(i.MODS_WriteRegValue)
    i.MX_CAN1_Init                           0x08006e68   Section        0  can.o(i.MX_CAN1_Init)
    i.MX_GPIO_Init                           0x08006ee0   Section        0  gpio.o(i.MX_GPIO_Init)
    i.MX_TIM7_Init                           0x08006fec   Section        0  tim.o(i.MX_TIM7_Init)
    i.MX_UART4_Init                          0x08007038   Section        0  usart.o(i.MX_UART4_Init)
    i.MemManage_Handler                      0x08007070   Section        0  stm32f4xx_it.o(i.MemManage_Handler)
    i.NMI_Handler                            0x08007074   Section        0  stm32f4xx_it.o(i.NMI_Handler)
    i.OD_extension_init                      0x08007078   Section        0  co_emergency.o(i.OD_extension_init)
    OD_extension_init                        0x08007079   Thumb Code    14  co_emergency.o(i.OD_extension_init)
    i.OD_extension_init                      0x08007086   Section        0  co_pdo.o(i.OD_extension_init)
    OD_extension_init                        0x08007087   Thumb Code    14  co_pdo.o(i.OD_extension_init)
    i.OD_extension_init                      0x08007094   Section        0  co_sync.o(i.OD_extension_init)
    OD_extension_init                        0x08007095   Thumb Code    14  co_sync.o(i.OD_extension_init)
    i.OD_find                                0x080070a2   Section        0  co_odinterface.o(i.OD_find)
    i.OD_getIndex                            0x0800710c   Section        0  co_emergency.o(i.OD_getIndex)
    OD_getIndex                              0x0800710d   Thumb Code    12  co_emergency.o(i.OD_getIndex)
    i.OD_getIndex                            0x08007118   Section        0  co_hbconsumer.o(i.OD_getIndex)
    OD_getIndex                              0x08007119   Thumb Code    12  co_hbconsumer.o(i.OD_getIndex)
    i.OD_getIndex                            0x08007124   Section        0  co_nmt_heartbeat.o(i.OD_getIndex)
    OD_getIndex                              0x08007125   Thumb Code    12  co_nmt_heartbeat.o(i.OD_getIndex)
    i.OD_getIndex                            0x08007130   Section        0  co_pdo.o(i.OD_getIndex)
    OD_getIndex                              0x08007131   Thumb Code    12  co_pdo.o(i.OD_getIndex)
    i.OD_getIndex                            0x0800713c   Section        0  co_sdoclient.o(i.OD_getIndex)
    OD_getIndex                              0x0800713d   Thumb Code    12  co_sdoclient.o(i.OD_getIndex)
    i.OD_getIndex                            0x08007148   Section        0  co_sync.o(i.OD_getIndex)
    OD_getIndex                              0x08007149   Thumb Code    12  co_sync.o(i.OD_getIndex)
    i.OD_getPtr                              0x08007154   Section        0  co_odinterface.o(i.OD_getPtr)
    i.OD_getSDOabCode                        0x0800719c   Section        0  co_odinterface.o(i.OD_getSDOabCode)
    i.OD_getSub                              0x080071b8   Section        0  co_odinterface.o(i.OD_getSub)
    i.OD_get_u16                             0x080072dc   Section        0  co_pdo.o(i.OD_get_u16)
    OD_get_u16                               0x080072dd   Thumb Code    26  co_pdo.o(i.OD_get_u16)
    i.OD_get_u32                             0x080072f6   Section        0  co_pdo.o(i.OD_get_u32)
    OD_get_u32                               0x080072f7   Thumb Code    26  co_pdo.o(i.OD_get_u32)
    i.OD_get_u32                             0x08007310   Section        0  co_sdoclient.o(i.OD_get_u32)
    OD_get_u32                               0x08007311   Thumb Code    26  co_sdoclient.o(i.OD_get_u32)
    i.OD_get_u32                             0x0800732a   Section        0  co_sdoserver.o(i.OD_get_u32)
    OD_get_u32                               0x0800732b   Thumb Code    26  co_sdoserver.o(i.OD_get_u32)
    i.OD_get_u8                              0x08007344   Section        0  co_pdo.o(i.OD_get_u8)
    OD_get_u8                                0x08007345   Thumb Code    26  co_pdo.o(i.OD_get_u8)
    i.OD_get_u8                              0x0800735e   Section        0  co_sdoclient.o(i.OD_get_u8)
    OD_get_u8                                0x0800735f   Thumb Code    26  co_sdoclient.o(i.OD_get_u8)
    i.OD_get_value                           0x08007378   Section        0  co_odinterface.o(i.OD_get_value)
    i.OD_mappable                            0x080073c8   Section        0  co_sdoserver.o(i.OD_mappable)
    OD_mappable                              0x080073c9   Thumb Code    24  co_sdoserver.o(i.OD_mappable)
    i.OD_readDisabled                        0x080073e0   Section        0  co_odinterface.o(i.OD_readDisabled)
    OD_readDisabled                          0x080073e1   Thumb Code     8  co_odinterface.o(i.OD_readDisabled)
    i.OD_readOriginal                        0x080073e8   Section        0  co_odinterface.o(i.OD_readOriginal)
    i.OD_read_1003                           0x08007458   Section        0  co_emergency.o(i.OD_read_1003)
    OD_read_1003                             0x08007459   Thumb Code   152  co_emergency.o(i.OD_read_1003)
    i.OD_read_1014_default                   0x080074f0   Section        0  co_emergency.o(i.OD_read_1014_default)
    OD_read_1014_default                     0x080074f1   Thumb Code    76  co_emergency.o(i.OD_read_1014_default)
    i.OD_read_PDO_commParam                  0x0800753c   Section        0  co_pdo.o(i.OD_read_PDO_commParam)
    OD_read_PDO_commParam                    0x0800753d   Thumb Code   116  co_pdo.o(i.OD_read_PDO_commParam)
    i.OD_read_dummy                          0x080075b0   Section        0  co_pdo.o(i.OD_read_dummy)
    OD_read_dummy                            0x080075b1   Thumb Code    46  co_pdo.o(i.OD_read_dummy)
    i.OD_set_u32                             0x080075de   Section        0  co_sdoserver.o(i.OD_set_u32)
    OD_set_u32                               0x080075df   Thumb Code    28  co_sdoserver.o(i.OD_set_u32)
    i.OD_set_value                           0x080075fa   Section        0  co_odinterface.o(i.OD_set_value)
    i.OD_writeDisabled                       0x08007644   Section        0  co_odinterface.o(i.OD_writeDisabled)
    OD_writeDisabled                         0x08007645   Thumb Code     8  co_odinterface.o(i.OD_writeDisabled)
    i.OD_writeOriginal                       0x0800764c   Section        0  co_odinterface.o(i.OD_writeOriginal)
    i.OD_write_1003                          0x080076c4   Section        0  co_emergency.o(i.OD_write_1003)
    OD_write_1003                            0x080076c5   Thumb Code    72  co_emergency.o(i.OD_write_1003)
    i.OD_write_1005                          0x0800770c   Section        0  co_sync.o(i.OD_write_1005)
    OD_write_1005                            0x0800770d   Thumb Code   278  co_sync.o(i.OD_write_1005)
    i.OD_write_1012                          0x0800782c   Section        0  co_time.o(i.OD_write_1012)
    OD_write_1012                            0x0800782d   Thumb Code   152  co_time.o(i.OD_write_1012)
    i.OD_write_1016                          0x080078c8   Section        0  co_hbconsumer.o(i.OD_write_1016)
    OD_write_1016                            0x080078c9   Thumb Code   116  co_hbconsumer.o(i.OD_write_1016)
    i.OD_write_1017                          0x0800793c   Section        0  co_nmt_heartbeat.o(i.OD_write_1017)
    OD_write_1017                            0x0800793d   Thumb Code    80  co_nmt_heartbeat.o(i.OD_write_1017)
    i.OD_write_1019                          0x0800798c   Section        0  co_sync.o(i.OD_write_1019)
    OD_write_1019                            0x0800798d   Thumb Code   140  co_sync.o(i.OD_write_1019)
    i.OD_write_1201_additional               0x08007a18   Section        0  co_sdoserver.o(i.OD_write_1201_additional)
    OD_write_1201_additional                 0x08007a19   Thumb Code   406  co_sdoserver.o(i.OD_write_1201_additional)
    i.OD_write_14xx                          0x08007bb4   Section        0  co_pdo.o(i.OD_write_14xx)
    OD_write_14xx                            0x08007bb5   Thumb Code   408  co_pdo.o(i.OD_write_14xx)
    i.OD_write_18xx                          0x08007d54   Section        0  co_pdo.o(i.OD_write_18xx)
    OD_write_18xx                            0x08007d55   Thumb Code   442  co_pdo.o(i.OD_write_18xx)
    i.OD_write_PDO_mapping                   0x08007f14   Section        0  co_pdo.o(i.OD_write_PDO_mapping)
    OD_write_PDO_mapping                     0x08007f15   Thumb Code   200  co_pdo.o(i.OD_write_PDO_mapping)
    i.OD_write_dummy                         0x08007fdc   Section        0  co_pdo.o(i.OD_write_dummy)
    OD_write_dummy                           0x08007fdd   Thumb Code    12  co_pdo.o(i.OD_write_dummy)
    i.PDO_initMapping                        0x08007fe8   Section        0  co_pdo.o(i.PDO_initMapping)
    PDO_initMapping                          0x08007fe9   Thumb Code   248  co_pdo.o(i.PDO_initMapping)
    i.PDOconfigMap                           0x080080e0   Section        0  co_pdo.o(i.PDOconfigMap)
    PDOconfigMap                             0x080080e1   Thumb Code   248  co_pdo.o(i.PDOconfigMap)
    i.PendSV_Handler                         0x080081e0   Section        0  stm32f4xx_it.o(i.PendSV_Handler)
    i.RS485_InitTXE                          0x080081e4   Section        0  modbus_usart.o(i.RS485_InitTXE)
    i.RS485_ReciveNew                        0x0800822c   Section        0  modbus_usart.o(i.RS485_ReciveNew)
    i.RS485_SendBefor                        0x08008238   Section        0  modbus_usart.o(i.RS485_SendBefor)
    i.RS485_SendBuf                          0x08008244   Section        0  modbus_usart.o(i.RS485_SendBuf)
    i.RS485_SendOver                         0x08008258   Section        0  modbus_usart.o(i.RS485_SendOver)
    i.SVC_Handler                            0x08008268   Section        0  stm32f4xx_it.o(i.SVC_Handler)
    i.SendNMTCommand                         0x0800826c   Section        0  canopen_operate.o(i.SendNMTCommand)
    i.SysTick_Handler                        0x080082a8   Section        0  stm32f4xx_it.o(i.SysTick_Handler)
    i.SystemClock_Config                     0x080082ac   Section        0  main.o(i.SystemClock_Config)
    i.SystemInit                             0x08008360   Section        0  system_stm32f4xx.o(i.SystemInit)
    i.TIM2_IRQHandler                        0x08008374   Section        0  modbus_tim.o(i.TIM2_IRQHandler)
    i.TIM6_DAC_IRQHandler                    0x08008428   Section        0  stm32f4xx_it.o(i.TIM6_DAC_IRQHandler)
    i.TIM7_IRQHandler                        0x08008438   Section        0  stm32f4xx_it.o(i.TIM7_IRQHandler)
    i.TIM_Base_SetConfig                     0x08008448   Section        0  stm32f4xx_hal_tim.o(i.TIM_Base_SetConfig)
    i.UART4_IRQHandler                       0x08008520   Section        0  stm32f4xx_it.o(i.UART4_IRQHandler)
    i.UART_DMAAbortOnError                   0x08008530   Section        0  stm32f4xx_hal_uart.o(i.UART_DMAAbortOnError)
    UART_DMAAbortOnError                     0x08008531   Thumb Code    20  stm32f4xx_hal_uart.o(i.UART_DMAAbortOnError)
    i.UART_EndRxTransfer                     0x08008544   Section        0  stm32f4xx_hal_uart.o(i.UART_EndRxTransfer)
    UART_EndRxTransfer                       0x08008545   Thumb Code   108  stm32f4xx_hal_uart.o(i.UART_EndRxTransfer)
    i.UART_EndTransmit_IT                    0x080085b0   Section        0  stm32f4xx_hal_uart.o(i.UART_EndTransmit_IT)
    UART_EndTransmit_IT                      0x080085b1   Thumb Code    32  stm32f4xx_hal_uart.o(i.UART_EndTransmit_IT)
    i.UART_Receive_IT                        0x080085d0   Section        0  stm32f4xx_hal_uart.o(i.UART_Receive_IT)
    UART_Receive_IT                          0x080085d1   Thumb Code   248  stm32f4xx_hal_uart.o(i.UART_Receive_IT)
    i.UART_SetConfig                         0x080086c8   Section        0  stm32f4xx_hal_uart.o(i.UART_SetConfig)
    UART_SetConfig                           0x080086c9   Thumb Code   546  stm32f4xx_hal_uart.o(i.UART_SetConfig)
    i.UART_Transmit_IT                       0x080088f4   Section        0  stm32f4xx_hal_uart.o(i.UART_Transmit_IT)
    UART_Transmit_IT                         0x080088f5   Thumb Code    96  stm32f4xx_hal_uart.o(i.UART_Transmit_IT)
    i.UART_WaitOnFlagUntilTimeout            0x08008954   Section        0  stm32f4xx_hal_uart.o(i.UART_WaitOnFlagUntilTimeout)
    UART_WaitOnFlagUntilTimeout              0x08008955   Thumb Code   146  stm32f4xx_hal_uart.o(i.UART_WaitOnFlagUntilTimeout)
    i.USART3_IRQHandler                      0x080089e8   Section        0  modbus_usart.o(i.USART3_IRQHandler)
    i.UartIRQ                                0x080089f8   Section        0  modbus_usart.o(i.UartIRQ)
    UartIRQ                                  0x080089f9   Thumb Code   246  modbus_usart.o(i.UartIRQ)
    i.UartSend                               0x08008aee   Section        0  modbus_usart.o(i.UartSend)
    UartSend                                 0x08008aef   Thumb Code   146  modbus_usart.o(i.UartSend)
    i.UartVarInit                            0x08008b80   Section        0  modbus_usart.o(i.UartVarInit)
    UartVarInit                              0x08008b81   Thumb Code    56  modbus_usart.o(i.UartVarInit)
    i.UsageFault_Handler                     0x08008bd4   Section        0  stm32f4xx_it.o(i.UsageFault_Handler)
    i.__0printf$5                            0x08008bd8   Section        0  printf5.o(i.__0printf$5)
    i.__NVIC_GetPriorityGrouping             0x08008bf8   Section        0  stm32f4xx_hal_cortex.o(i.__NVIC_GetPriorityGrouping)
    __NVIC_GetPriorityGrouping               0x08008bf9   Thumb Code    10  stm32f4xx_hal_cortex.o(i.__NVIC_GetPriorityGrouping)
    i.__NVIC_SetPriority                     0x08008c08   Section        0  stm32f4xx_hal_cortex.o(i.__NVIC_SetPriority)
    __NVIC_SetPriority                       0x08008c09   Thumb Code    32  stm32f4xx_hal_cortex.o(i.__NVIC_SetPriority)
    i.__scatterload_copy                     0x08008c30   Section       14  handlers.o(i.__scatterload_copy)
    i.__scatterload_null                     0x08008c3e   Section        2  handlers.o(i.__scatterload_null)
    i.__scatterload_zeroinit                 0x08008c40   Section       14  handlers.o(i.__scatterload_zeroinit)
    i.__set_PRIMASK                          0x08008c4e   Section        0  modbus_usart.o(i.__set_PRIMASK)
    __set_PRIMASK                            0x08008c4f   Thumb Code     6  modbus_usart.o(i.__set_PRIMASK)
    i._printf_core                           0x08008c54   Section        0  printf5.o(i._printf_core)
    _printf_core                             0x08008c55   Thumb Code   658  printf5.o(i._printf_core)
    i.atomic_inc32                           0x08008f14   Section        0  eventrecorder.o(i.atomic_inc32)
    atomic_inc32                             0x08008f15   Thumb Code    20  eventrecorder.o(i.atomic_inc32)
    i.atomic_xch32                           0x08008f28   Section        0  eventrecorder.o(i.atomic_xch32)
    atomic_xch32                             0x08008f29   Thumb Code    18  eventrecorder.o(i.atomic_xch32)
    i.bsp_GetKey                             0x08008f3c   Section        0  key.o(i.bsp_GetKey)
    i.bsp_GetMsg                             0x08008f6c   Section        0  modbus_msg.o(i.bsp_GetMsg)
    i.bsp_InitHardTimer                      0x08008fb8   Section        0  modbus_tim.o(i.bsp_InitHardTimer)
    i.bsp_InitUart                           0x08009050   Section        0  modbus_usart.o(i.bsp_InitUart)
    i.bsp_PutKey                             0x08009060   Section        0  key.o(i.bsp_PutKey)
    i.bsp_PutMsg                             0x08009090   Section        0  modbus_msg.o(i.bsp_PutMsg)
    i.bsp_SetUartParam                       0x080090c8   Section        0  modbus_usart.o(i.bsp_SetUartParam)
    i.bsp_StartHardTimer                     0x08009100   Section        0  modbus_tim.o(i.bsp_StartHardTimer)
    i.canopen_app_init                       0x0800918c   Section        0  co_app_stm32.o(i.canopen_app_init)
    i.canopen_app_interrupt                  0x0800921c   Section        0  co_app_stm32.o(i.canopen_app_interrupt)
    i.canopen_app_process                    0x0800928c   Section        0  co_app_stm32.o(i.canopen_app_process)
    i.canopen_app_resetCommunication         0x08009384   Section        0  co_app_stm32.o(i.canopen_app_resetCommunication)
    i.comSendBuf                             0x0800967c   Section        0  modbus_usart.o(i.comSendBuf)
    i.crc16_ccitt                            0x080096aa   Section        0  eventrecorder.o(i.crc16_ccitt)
    crc16_ccitt                              0x080096ab   Thumb Code    66  eventrecorder.o(i.crc16_ccitt)
    i.enable_motor                           0x080096ec   Section        0  jawd_speed.o(i.enable_motor)
    enable_motor                             0x080096ed   Thumb Code   280  jawd_speed.o(i.enable_motor)
    i.fputc                                  0x080098f0   Section        0  usart.o(i.fputc)
    i.free                                   0x0800990c   Section        0  malloc.o(i.free)
    i.key_fifoinit                           0x0800995c   Section        0  key.o(i.key_fifoinit)
    i.main                                   0x08009964   Section        0  main.o(i.main)
    i.malloc                                 0x08009a68   Section        0  malloc.o(i.malloc)
    i.motor_05h                              0x08009ad4   Section        0  jawd_speed.o(i.motor_05h)
    i.motorspeed_init                        0x08009b74   Section        0  jawd_speed.o(i.motorspeed_init)
    i.motorstart                             0x08009dc8   Section        0  jawd_speed.o(i.motorstart)
    i.motorstop                              0x08009e78   Section        0  jawd_speed.o(i.motorstop)
    i.prv_read_can_received_msg              0x08009f00   Section        0  co_driver_stm32.o(i.prv_read_can_received_msg)
    prv_read_can_received_msg                0x08009f01   Thumb Code   144  co_driver_stm32.o(i.prv_read_can_received_msg)
    i.prv_send_can_message                   0x08009f98   Section        0  co_driver_stm32.o(i.prv_send_can_message)
    prv_send_can_message                     0x08009f99   Thumb Code    86  co_driver_stm32.o(i.prv_send_can_message)
    i.readFromOd                             0x08009ff4   Section        0  co_sdoserver.o(i.readFromOd)
    readFromOd                               0x08009ff5   Thumb Code   276  co_sdoserver.o(i.readFromOd)
    i.read_SDO                               0x0800a10c   Section        0  canopen_operate.o(i.read_SDO)
    i.readacc                                0x0800a1a0   Section        0  jawd_speed.o(i.readacc)
    i.readdcc                                0x0800a1e0   Section        0  jawd_speed.o(i.readdcc)
    i.readspeed                              0x0800a220   Section        0  jawd_speed.o(i.readspeed)
    i.readspeed_taget                        0x0800a294   Section        0  jawd_speed.o(i.readspeed_taget)
    i.setacc                                 0x0800a2fc   Section        0  jawd_speed.o(i.setacc)
    i.setdcc                                 0x0800a36c   Section        0  jawd_speed.o(i.setdcc)
    i.setspeed_1                             0x0800a3dc   Section        0  jawd_speed.o(i.setspeed_1)
    i.setspeed_2                             0x0800a458   Section        0  jawd_speed.o(i.setspeed_2)
    i.validateAndWriteToOD                   0x0800a4d4   Section        0  co_sdoserver.o(i.validateAndWriteToOD)
    validateAndWriteToOD                     0x0800a4d5   Thumb Code   362  co_sdoserver.o(i.validateAndWriteToOD)
    i.write_SDO                              0x0800a644   Section        0  canopen_operate.o(i.write_SDO)
    .constdata                               0x0800a6e8   Section       24  system_stm32f4xx.o(.constdata)
    .constdata                               0x0800a700   Section      104  co_odinterface.o(.constdata)
    abortCodes                               0x0800a700   Data         104  co_odinterface.o(.constdata)
    .constdata                               0x0800a768   Section       20  co_lssslave.o(.constdata)
    CO_LSS_bitTimingTableLookup              0x0800a768   Data          20  co_lssslave.o(.constdata)
    .constdata                               0x0800a77c   Section     1688  od.o(.constdata)
    ODObjs                                   0x0800a77c   Data        1688  od.o(.constdata)
    .constdata                               0x0800ae14   Section       64  modbus_slave.o(.constdata)
    .constdata                               0x0800ae54   Section      512  user_lib.o(.constdata)
    s_CRCHi                                  0x0800ae54   Data         256  user_lib.o(.constdata)
    .constdata                               0x0800b054   Section       24  eventrecorder.o(.constdata)
    __tagsym$$used                           0x0800b054   Number         0  eventrecorder.o(.constdata)
    .data                                    0x20000000   Section        9  stm32f4xx_hal.o(.data)
    .data                                    0x2000000c   Section        4  system_stm32f4xx.o(.data)
    .data                                    0x20000010   Section       17  co_app_stm32.o(.data)
    .data                                    0x20000024   Section       10  co_driver_stm32.o(.data)
    CANModule_local                          0x20000024   Data           4  co_driver_stm32.o(.data)
    rxErrors                                 0x20000028   Data           2  co_driver_stm32.o(.data)
    txErrors                                 0x2000002a   Data           2  co_driver_stm32.o(.data)
    overflow                                 0x2000002c   Data           2  co_driver_stm32.o(.data)
    .data                                    0x20000030   Section      976  od.o(.data)
    ODList                                   0x2000025c   Data         408  od.o(.data)
    _OD                                      0x200003f4   Data           8  od.o(.data)
    .data                                    0x20000400   Section        8  jawd_speed.o(.data)
    .data                                    0x20000408   Section        1  canopen_operate.o(.data)
    .data                                    0x2000040c   Section       16  modbus_tim.o(.data)
    s_TIM_CallBack1                          0x2000040c   Data           4  modbus_tim.o(.data)
    s_TIM_CallBack2                          0x20000410   Data           4  modbus_tim.o(.data)
    s_TIM_CallBack3                          0x20000414   Data           4  modbus_tim.o(.data)
    s_TIM_CallBack4                          0x20000418   Data           4  modbus_tim.o(.data)
    .data                                    0x2000041c   Section        1  modbus_slave.o(.data)
    g_mods_timeout                           0x2000041c   Data           1  modbus_slave.o(.data)
    .data                                    0x20000420   Section        4  stdout.o(.data)
    .data                                    0x20000424   Section        4  mvars.o(.data)
    .data                                    0x20000428   Section        4  mvars.o(.data)
    .bss                                     0x2000042c   Section       40  can.o(.bss)
    .bss                                     0x20000454   Section       72  tim.o(.bss)
    .bss                                     0x2000049c   Section       68  usart.o(.bss)
    .bss                                     0x200004e0   Section       72  stm32f4xx_hal_timebase_tim.o(.bss)
    .bss                                     0x20000528   Section       52  co_driver_stm32.o(.bss)
    tx_hdr                                   0x20000528   Data          24  co_driver_stm32.o(.bss)
    rx_hdr                                   0x20000540   Data          28  co_driver_stm32.o(.bss)
    .bss                                     0x2000055c   Section       20  jawd_speed.o(.bss)
    .bss                                     0x20000570   Section       12  key.o(.bss)
    .bss                                     0x2000057c   Section     2092  modbus_usart.o(.bss)
    g_tUart3                                 0x2000057c   Data          44  modbus_usart.o(.bss)
    g_TxBuf3                                 0x200005a8   Data        1024  modbus_usart.o(.bss)
    g_RxBuf3                                 0x200009a8   Data        1024  modbus_usart.o(.bss)
    .bss                                     0x20000da8   Section      196  modbus_slave.o(.bss)
    .bss                                     0x20000e6c   Section      324  modbus_msg.o(.bss)
    .bss.noinit                              0x20000fc0   Section     1188  eventrecorder.o(.bss.noinit)
    EventBuffer                              0x20000fc0   Data        1024  eventrecorder.o(.bss.noinit)
    EventFilter                              0x200013c0   Data         128  eventrecorder.o(.bss.noinit)
    EventStatus                              0x20001440   Data          36  eventrecorder.o(.bss.noinit)
    HEAP                                     0x20001468   Section    16384  startup_stm32f407xx.o(HEAP)
    STACK                                    0x20005468   Section     8192  startup_stm32f407xx.o(STACK)

    Global Symbols

    Symbol Name                              Value     Ov Type        Size  Object(Section)

    BuildAttributes$$THM_ISAv4$E$P$D$K$B$S$7EM$VFPi3$EXTD16$VFPS$VFMA$PE$A:L22UL41UL21$X:L11$S22US41US21$IEEE1$IW$USESV6$~STKCKD$USESV7$~SHL$OSPACE$ROPI$EBA8$MICROLIB$REQ8$PRES8$EABIv2 0x00000000   Number         0  anon$$obj.o ABSOLUTE
    __ARM_use_no_argv                        0x00000000   Number         0  main.o ABSOLUTE
    _printf_a                                0x00000000   Number         0  stubs.o ABSOLUTE
    _printf_c                                0x00000000   Number         0  stubs.o ABSOLUTE
    _printf_charcount                        0x00000000   Number         0  stubs.o ABSOLUTE
    _printf_d                                0x00000000   Number         0  stubs.o ABSOLUTE
    _printf_e                                0x00000000   Number         0  stubs.o ABSOLUTE
    _printf_f                                0x00000000   Number         0  stubs.o ABSOLUTE
    _printf_flags                            0x00000000   Number         0  stubs.o ABSOLUTE
    _printf_fp_dec                           0x00000000   Number         0  stubs.o ABSOLUTE
    _printf_fp_hex                           0x00000000   Number         0  stubs.o ABSOLUTE
    _printf_g                                0x00000000   Number         0  stubs.o ABSOLUTE
    _printf_i                                0x00000000   Number         0  stubs.o ABSOLUTE
    _printf_int_dec                          0x00000000   Number         0  stubs.o ABSOLUTE
    _printf_l                                0x00000000   Number         0  stubs.o ABSOLUTE
    _printf_lc                               0x00000000   Number         0  stubs.o ABSOLUTE
    _printf_ll                               0x00000000   Number         0  stubs.o ABSOLUTE
    _printf_lld                              0x00000000   Number         0  stubs.o ABSOLUTE
    _printf_lli                              0x00000000   Number         0  stubs.o ABSOLUTE
    _printf_llo                              0x00000000   Number         0  stubs.o ABSOLUTE
    _printf_llu                              0x00000000   Number         0  stubs.o ABSOLUTE
    _printf_llx                              0x00000000   Number         0  stubs.o ABSOLUTE
    _printf_longlong_dec                     0x00000000   Number         0  stubs.o ABSOLUTE
    _printf_longlong_hex                     0x00000000   Number         0  stubs.o ABSOLUTE
    _printf_longlong_oct                     0x00000000   Number         0  stubs.o ABSOLUTE
    _printf_ls                               0x00000000   Number         0  stubs.o ABSOLUTE
    _printf_mbtowc                           0x00000000   Number         0  stubs.o ABSOLUTE
    _printf_n                                0x00000000   Number         0  stubs.o ABSOLUTE
    _printf_o                                0x00000000   Number         0  stubs.o ABSOLUTE
    _printf_p                                0x00000000   Number         0  stubs.o ABSOLUTE
    _printf_percent                          0x00000000   Number         0  stubs.o ABSOLUTE
    _printf_pre_padding                      0x00000000   Number         0  stubs.o ABSOLUTE
    _printf_return_value                     0x00000000   Number         0  stubs.o ABSOLUTE
    _printf_s                                0x00000000   Number         0  stubs.o ABSOLUTE
    _printf_sizespec                         0x00000000   Number         0  stubs.o ABSOLUTE
    _printf_str                              0x00000000   Number         0  stubs.o ABSOLUTE
    _printf_truncate_signed                  0x00000000   Number         0  stubs.o ABSOLUTE
    _printf_truncate_unsigned                0x00000000   Number         0  stubs.o ABSOLUTE
    _printf_u                                0x00000000   Number         0  stubs.o ABSOLUTE
    _printf_wc                               0x00000000   Number         0  stubs.o ABSOLUTE
    _printf_wctomb                           0x00000000   Number         0  stubs.o ABSOLUTE
    _printf_widthprec                        0x00000000   Number         0  stubs.o ABSOLUTE
    _printf_x                                0x00000000   Number         0  stubs.o ABSOLUTE
    __cpp_initialize__aeabi_                  - Undefined Weak Reference
    __cxa_finalize                            - Undefined Weak Reference
    _clock_init                               - Undefined Weak Reference
    _microlib_exit                            - Undefined Weak Reference
    __Vectors_Size                           0x00000188   Number         0  startup_stm32f407xx.o ABSOLUTE
    __Vectors                                0x08000000   Data           4  startup_stm32f407xx.o(RESET)
    __Vectors_End                            0x08000188   Data           0  startup_stm32f407xx.o(RESET)
    __main                                   0x08000189   Thumb Code     0  entry.o(.ARM.Collect$$$$00000000)
    _main_stk                                0x08000189   Thumb Code     0  entry2.o(.ARM.Collect$$$$00000001)
    _main_scatterload                        0x0800018d   Thumb Code     0  entry5.o(.ARM.Collect$$$$00000004)
    __main_after_scatterload                 0x08000191   Thumb Code     0  entry5.o(.ARM.Collect$$$$00000004)
    _main_clock                              0x08000191   Thumb Code     0  entry7b.o(.ARM.Collect$$$$00000008)
    _main_cpp_init                           0x08000191   Thumb Code     0  entry8b.o(.ARM.Collect$$$$0000000A)
    _main_init                               0x08000191   Thumb Code     0  entry9a.o(.ARM.Collect$$$$0000000B)
    __rt_final_cpp                           0x08000199   Thumb Code     0  entry10a.o(.ARM.Collect$$$$0000000D)
    __rt_final_exit                          0x08000199   Thumb Code     0  entry11a.o(.ARM.Collect$$$$0000000F)
    Reset_Handler                            0x0800019d   Thumb Code     8  startup_stm32f407xx.o(.text)
    ADC_IRQHandler                           0x080001b7   Thumb Code     0  startup_stm32f407xx.o(.text)
    CAN1_SCE_IRQHandler                      0x080001b7   Thumb Code     0  startup_stm32f407xx.o(.text)
    CAN2_RX0_IRQHandler                      0x080001b7   Thumb Code     0  startup_stm32f407xx.o(.text)
    CAN2_RX1_IRQHandler                      0x080001b7   Thumb Code     0  startup_stm32f407xx.o(.text)
    CAN2_SCE_IRQHandler                      0x080001b7   Thumb Code     0  startup_stm32f407xx.o(.text)
    CAN2_TX_IRQHandler                       0x080001b7   Thumb Code     0  startup_stm32f407xx.o(.text)
    DCMI_IRQHandler                          0x080001b7   Thumb Code     0  startup_stm32f407xx.o(.text)
    DMA1_Stream0_IRQHandler                  0x080001b7   Thumb Code     0  startup_stm32f407xx.o(.text)
    DMA1_Stream1_IRQHandler                  0x080001b7   Thumb Code     0  startup_stm32f407xx.o(.text)
    DMA1_Stream2_IRQHandler                  0x080001b7   Thumb Code     0  startup_stm32f407xx.o(.text)
    DMA1_Stream3_IRQHandler                  0x080001b7   Thumb Code     0  startup_stm32f407xx.o(.text)
    DMA1_Stream4_IRQHandler                  0x080001b7   Thumb Code     0  startup_stm32f407xx.o(.text)
    DMA1_Stream5_IRQHandler                  0x080001b7   Thumb Code     0  startup_stm32f407xx.o(.text)
    DMA1_Stream6_IRQHandler                  0x080001b7   Thumb Code     0  startup_stm32f407xx.o(.text)
    DMA1_Stream7_IRQHandler                  0x080001b7   Thumb Code     0  startup_stm32f407xx.o(.text)
    DMA2_Stream0_IRQHandler                  0x080001b7   Thumb Code     0  startup_stm32f407xx.o(.text)
    DMA2_Stream1_IRQHandler                  0x080001b7   Thumb Code     0  startup_stm32f407xx.o(.text)
    DMA2_Stream2_IRQHandler                  0x080001b7   Thumb Code     0  startup_stm32f407xx.o(.text)
    DMA2_Stream3_IRQHandler                  0x080001b7   Thumb Code     0  startup_stm32f407xx.o(.text)
    DMA2_Stream4_IRQHandler                  0x080001b7   Thumb Code     0  startup_stm32f407xx.o(.text)
    DMA2_Stream5_IRQHandler                  0x080001b7   Thumb Code     0  startup_stm32f407xx.o(.text)
    DMA2_Stream6_IRQHandler                  0x080001b7   Thumb Code     0  startup_stm32f407xx.o(.text)
    DMA2_Stream7_IRQHandler                  0x080001b7   Thumb Code     0  startup_stm32f407xx.o(.text)
    ETH_IRQHandler                           0x080001b7   Thumb Code     0  startup_stm32f407xx.o(.text)
    ETH_WKUP_IRQHandler                      0x080001b7   Thumb Code     0  startup_stm32f407xx.o(.text)
    EXTI0_IRQHandler                         0x080001b7   Thumb Code     0  startup_stm32f407xx.o(.text)
    EXTI1_IRQHandler                         0x080001b7   Thumb Code     0  startup_stm32f407xx.o(.text)
    EXTI2_IRQHandler                         0x080001b7   Thumb Code     0  startup_stm32f407xx.o(.text)
    EXTI3_IRQHandler                         0x080001b7   Thumb Code     0  startup_stm32f407xx.o(.text)
    EXTI4_IRQHandler                         0x080001b7   Thumb Code     0  startup_stm32f407xx.o(.text)
    FLASH_IRQHandler                         0x080001b7   Thumb Code     0  startup_stm32f407xx.o(.text)
    FMC_IRQHandler                           0x080001b7   Thumb Code     0  startup_stm32f407xx.o(.text)
    FPU_IRQHandler                           0x080001b7   Thumb Code     0  startup_stm32f407xx.o(.text)
    HASH_RNG_IRQHandler                      0x080001b7   Thumb Code     0  startup_stm32f407xx.o(.text)
    I2C1_ER_IRQHandler                       0x080001b7   Thumb Code     0  startup_stm32f407xx.o(.text)
    I2C1_EV_IRQHandler                       0x080001b7   Thumb Code     0  startup_stm32f407xx.o(.text)
    I2C2_ER_IRQHandler                       0x080001b7   Thumb Code     0  startup_stm32f407xx.o(.text)
    I2C2_EV_IRQHandler                       0x080001b7   Thumb Code     0  startup_stm32f407xx.o(.text)
    I2C3_ER_IRQHandler                       0x080001b7   Thumb Code     0  startup_stm32f407xx.o(.text)
    I2C3_EV_IRQHandler                       0x080001b7   Thumb Code     0  startup_stm32f407xx.o(.text)
    OTG_FS_IRQHandler                        0x080001b7   Thumb Code     0  startup_stm32f407xx.o(.text)
    OTG_FS_WKUP_IRQHandler                   0x080001b7   Thumb Code     0  startup_stm32f407xx.o(.text)
    OTG_HS_EP1_IN_IRQHandler                 0x080001b7   Thumb Code     0  startup_stm32f407xx.o(.text)
    OTG_HS_EP1_OUT_IRQHandler                0x080001b7   Thumb Code     0  startup_stm32f407xx.o(.text)
    OTG_HS_IRQHandler                        0x080001b7   Thumb Code     0  startup_stm32f407xx.o(.text)
    OTG_HS_WKUP_IRQHandler                   0x080001b7   Thumb Code     0  startup_stm32f407xx.o(.text)
    PVD_IRQHandler                           0x080001b7   Thumb Code     0  startup_stm32f407xx.o(.text)
    RCC_IRQHandler                           0x080001b7   Thumb Code     0  startup_stm32f407xx.o(.text)
    RTC_Alarm_IRQHandler                     0x080001b7   Thumb Code     0  startup_stm32f407xx.o(.text)
    RTC_WKUP_IRQHandler                      0x080001b7   Thumb Code     0  startup_stm32f407xx.o(.text)
    SDIO_IRQHandler                          0x080001b7   Thumb Code     0  startup_stm32f407xx.o(.text)
    SPI1_IRQHandler                          0x080001b7   Thumb Code     0  startup_stm32f407xx.o(.text)
    SPI2_IRQHandler                          0x080001b7   Thumb Code     0  startup_stm32f407xx.o(.text)
    SPI3_IRQHandler                          0x080001b7   Thumb Code     0  startup_stm32f407xx.o(.text)
    TAMP_STAMP_IRQHandler                    0x080001b7   Thumb Code     0  startup_stm32f407xx.o(.text)
    TIM1_BRK_TIM9_IRQHandler                 0x080001b7   Thumb Code     0  startup_stm32f407xx.o(.text)
    TIM1_CC_IRQHandler                       0x080001b7   Thumb Code     0  startup_stm32f407xx.o(.text)
    TIM1_TRG_COM_TIM11_IRQHandler            0x080001b7   Thumb Code     0  startup_stm32f407xx.o(.text)
    TIM1_UP_TIM10_IRQHandler                 0x080001b7   Thumb Code     0  startup_stm32f407xx.o(.text)
    TIM3_IRQHandler                          0x080001b7   Thumb Code     0  startup_stm32f407xx.o(.text)
    TIM4_IRQHandler                          0x080001b7   Thumb Code     0  startup_stm32f407xx.o(.text)
    TIM5_IRQHandler                          0x080001b7   Thumb Code     0  startup_stm32f407xx.o(.text)
    TIM8_BRK_TIM12_IRQHandler                0x080001b7   Thumb Code     0  startup_stm32f407xx.o(.text)
    TIM8_CC_IRQHandler                       0x080001b7   Thumb Code     0  startup_stm32f407xx.o(.text)
    TIM8_TRG_COM_TIM14_IRQHandler            0x080001b7   Thumb Code     0  startup_stm32f407xx.o(.text)
    TIM8_UP_TIM13_IRQHandler                 0x080001b7   Thumb Code     0  startup_stm32f407xx.o(.text)
    UART5_IRQHandler                         0x080001b7   Thumb Code     0  startup_stm32f407xx.o(.text)
    USART1_IRQHandler                        0x080001b7   Thumb Code     0  startup_stm32f407xx.o(.text)
    USART2_IRQHandler                        0x080001b7   Thumb Code     0  startup_stm32f407xx.o(.text)
    USART6_IRQHandler                        0x080001b7   Thumb Code     0  startup_stm32f407xx.o(.text)
    WWDG_IRQHandler                          0x080001b7   Thumb Code     0  startup_stm32f407xx.o(.text)
    __aeabi_uldivmod                         0x080001c1   Thumb Code    98  uldiv.o(.text)
    ___aeabi_memcpy8$move                    0x08000223   Thumb Code     0  memmovea.o(.text)
    __aeabi_memcpy                           0x08000223   Thumb Code    64  memmovea.o(.text)
    __aeabi_memcpy4                          0x08000223   Thumb Code     0  memmovea.o(.text)
    __aeabi_memmove                          0x08000223   Thumb Code     0  memmovea.o(.text)
    __aeabi_memmove4                         0x08000223   Thumb Code     0  memmovea.o(.text)
    __aeabi_memmove8                         0x08000223   Thumb Code     0  memmovea.o(.text)
    __aeabi_memset                           0x08000263   Thumb Code    14  memseta.o(.text)
    __aeabi_memset4                          0x08000263   Thumb Code     0  memseta.o(.text)
    __aeabi_memset8                          0x08000263   Thumb Code     0  memseta.o(.text)
    __aeabi_memclr                           0x08000271   Thumb Code     4  memseta.o(.text)
    __aeabi_memclr4                          0x08000271   Thumb Code     0  memseta.o(.text)
    __aeabi_memclr8                          0x08000271   Thumb Code     0  memseta.o(.text)
    _memset$wrapper                          0x08000275   Thumb Code    18  memseta.o(.text)
    strlen                                   0x08000287   Thumb Code    14  strlen.o(.text)
    calloc                                   0x08000295   Thumb Code    28  calloc.o(.text)
    __aeabi_llsl                             0x080002b1   Thumb Code    30  llshl.o(.text)
    _ll_shift_l                              0x080002b1   Thumb Code     0  llshl.o(.text)
    __aeabi_llsr                             0x080002cf   Thumb Code    32  llushr.o(.text)
    _ll_ushift_r                             0x080002cf   Thumb Code     0  llushr.o(.text)
    __scatterload                            0x080002f1   Thumb Code    28  init.o(.text)
    __scatterload_rt2                        0x080002f1   Thumb Code     0  init.o(.text)
    __decompress                             0x08000315   Thumb Code     0  __dczerorl2.o(.text)
    __decompress1                            0x08000315   Thumb Code    86  __dczerorl2.o(.text)
    BEBufToUint16                            0x0800036b   Thumb Code    12  user_lib.o(i.BEBufToUint16)
    BusFault_Handler                         0x08000377   Thumb Code     4  stm32f4xx_it.o(i.BusFault_Handler)
    CAN1_RX0_IRQHandler                      0x0800037d   Thumb Code    10  stm32f4xx_it.o(i.CAN1_RX0_IRQHandler)
    CAN1_RX1_IRQHandler                      0x0800038d   Thumb Code    10  stm32f4xx_it.o(i.CAN1_RX1_IRQHandler)
    CAN1_TX_IRQHandler                       0x0800039d   Thumb Code    10  stm32f4xx_it.o(i.CAN1_TX_IRQHandler)
    CO_CANclearPendingSyncPDOs               0x080003ad   Thumb Code   116  co_driver_stm32.o(i.CO_CANclearPendingSyncPDOs)
    CO_CANinit                               0x08000421   Thumb Code    54  canopen.o(i.CO_CANinit)
    CO_CANinterrupt_TX                       0x08000457   Thumb Code    96  co_driver_stm32.o(i.CO_CANinterrupt_TX)
    CO_CANmodule_disable                     0x080004b7   Thumb Code    20  co_driver_stm32.o(i.CO_CANmodule_disable)
    CO_CANmodule_init                        0x080004cd   Thumb Code   252  co_driver_stm32.o(i.CO_CANmodule_init)
    CO_CANmodule_process                     0x080005d1   Thumb Code    72  co_driver_stm32.o(i.CO_CANmodule_process)
    CO_CANopenInit                           0x08000619   Thumb Code   558  canopen.o(i.CO_CANopenInit)
    CO_CANopenInitPDO                        0x0800084d   Thumb Code   300  canopen.o(i.CO_CANopenInitPDO)
    CO_CANrxBufferInit                       0x0800097d   Thumb Code   104  co_driver_stm32.o(i.CO_CANrxBufferInit)
    CO_CANsend                               0x080009e5   Thumb Code    80  co_driver_stm32.o(i.CO_CANsend)
    CO_CANsetConfigurationMode               0x08000a35   Thumb Code    14  co_driver_stm32.o(i.CO_CANsetConfigurationMode)
    CO_CANsetNormalMode                      0x08000a43   Thumb Code    24  co_driver_stm32.o(i.CO_CANsetNormalMode)
    CO_CANtxBufferInit                       0x08000a5b   Thumb Code    60  co_driver_stm32.o(i.CO_CANtxBufferInit)
    CO_EM_init                               0x08000a99   Thumb Code   314  co_emergency.o(i.CO_EM_init)
    CO_EM_process                            0x08000be9   Thumb Code   422  co_emergency.o(i.CO_EM_process)
    CO_HBconsumer_init                       0x08000dad   Thumb Code   268  co_hbconsumer.o(i.CO_HBconsumer_init)
    CO_HBconsumer_process                    0x08000f95   Thumb Code   284  co_hbconsumer.o(i.CO_HBconsumer_process)
    CO_LEDs_init                             0x080010b1   Thumb Code    22  co_leds.o(i.CO_LEDs_init)
    CO_LEDs_process                          0x080010c7   Thumb Code   618  co_leds.o(i.CO_LEDs_process)
    CO_LSSinit                               0x08001331   Thumb Code    72  canopen.o(i.CO_LSSinit)
    CO_LSSslave_init                         0x08001379   Thumb Code   174  co_lssslave.o(i.CO_LSSslave_init)
    CO_LSSslave_process                      0x0800142d   Thumb Code   508  co_lssslave.o(i.CO_LSSslave_process)
    CO_NMT_init                              0x080017e1   Thumb Code   326  co_nmt_heartbeat.o(i.CO_NMT_init)
    CO_NMT_process                           0x08001935   Thumb Code   324  co_nmt_heartbeat.o(i.CO_NMT_process)
    CO_NMT_sendCommand                       0x08001a95   Thumb Code    44  co_nmt_heartbeat.o(i.CO_NMT_sendCommand)
    CO_RPDO_init                             0x08001b51   Thumb Code   464  co_pdo.o(i.CO_RPDO_init)
    CO_RPDO_process                          0x08001d35   Thumb Code   454  co_pdo.o(i.CO_RPDO_process)
    CO_SDOclientDownload                     0x08001f39   Thumb Code   588  co_sdoclient.o(i.CO_SDOclientDownload)
    CO_SDOclientDownloadBufWrite             0x08002195   Thumb Code    38  co_sdoclient.o(i.CO_SDOclientDownloadBufWrite)
    CO_SDOclientDownloadInitiate             0x080021bb   Thumb Code    82  co_sdoclient.o(i.CO_SDOclientDownloadInitiate)
    CO_SDOclientUpload                       0x0800220d   Thumb Code   542  co_sdoclient.o(i.CO_SDOclientUpload)
    CO_SDOclientUploadBufRead                0x08002439   Thumb Code    38  co_sdoclient.o(i.CO_SDOclientUploadBufRead)
    CO_SDOclientUploadInitiate               0x0800245f   Thumb Code    80  co_sdoclient.o(i.CO_SDOclientUploadInitiate)
    CO_SDOclient_init                        0x080024af   Thumb Code   232  co_sdoclient.o(i.CO_SDOclient_init)
    CO_SDOclient_setup                       0x080025c9   Thumb Code   166  co_sdoclient.o(i.CO_SDOclient_setup)
    CO_SDOserver_init                        0x08002675   Thumb Code   428  co_sdoserver.o(i.CO_SDOserver_init)
    CO_SDOserver_process                     0x080028cd   Thumb Code  1592  co_sdoserver.o(i.CO_SDOserver_process)
    CO_SYNC_init                             0x08002f09   Thumb Code   446  co_sync.o(i.CO_SYNC_init)
    CO_SYNC_process                          0x080030d9   Thumb Code   306  co_sync.o(i.CO_SYNC_process)
    CO_TIME_init                             0x08003255   Thumb Code   198  co_time.o(i.CO_TIME_init)
    CO_TIME_process                          0x08003329   Thumb Code   146  co_time.o(i.CO_TIME_process)
    CO_TPDO_init                             0x080033e1   Thumb Code   542  co_pdo.o(i.CO_TPDO_init)
    CO_TPDO_process                          0x08003611   Thumb Code   362  co_pdo.o(i.CO_TPDO_process)
    CO_delete                                0x08003853   Thumb Code   120  canopen.o(i.CO_delete)
    CO_error                                 0x080038cb   Thumb Code   226  co_emergency.o(i.CO_error)
    CO_fifo_init                             0x080039ad   Thumb Code    24  co_fifo.o(i.CO_fifo_init)
    CO_fifo_read                             0x080039c5   Thumb Code    92  co_fifo.o(i.CO_fifo_read)
    CO_fifo_write                            0x08003a2b   Thumb Code    92  co_fifo.o(i.CO_fifo_write)
    CO_new                                   0x08003b2d   Thumb Code   380  canopen.o(i.CO_new)
    CO_process                               0x08003ca9   Thumb Code   362  canopen.o(i.CO_process)
    CO_process_RPDO                          0x08003e13   Thumb Code    80  canopen.o(i.CO_process_RPDO)
    CO_process_SYNC                          0x08003e63   Thumb Code   102  canopen.o(i.CO_process_SYNC)
    CO_process_TPDO                          0x08003ec9   Thumb Code    76  canopen.o(i.CO_process_TPDO)
    CRC16_Modbus                             0x08003f39   Thumb Code    48  user_lib.o(i.CRC16_Modbus)
    ComToUart                                0x08003f71   Thumb Code    14  modbus_usart.o(i.ComToUart)
    DebugMon_Handler                         0x08003f85   Thumb Code     2  stm32f4xx_it.o(i.DebugMon_Handler)
    EXTI15_10_IRQHandler                     0x08003f87   Thumb Code    28  stm32f4xx_it.o(i.EXTI15_10_IRQHandler)
    EXTI9_5_IRQHandler                       0x08003fa3   Thumb Code    12  stm32f4xx_it.o(i.EXTI9_5_IRQHandler)
    Error_Handler                            0x08003faf   Thumb Code     6  main.o(i.Error_Handler)
    EventRecorderEnable                      0x080040f5   Thumb Code    88  eventrecorder.o(i.EventRecorderEnable)
    EventRecorderInitialize                  0x08004151   Thumb Code   212  eventrecorder.o(i.EventRecorderInitialize)
    EventRecorderStart                       0x0800423d   Thumb Code    40  eventrecorder.o(i.EventRecorderStart)
    EventRecorderTimerGet                    0x0800426d   Thumb Code     6  eventrecorder.o(i.EventRecorderTimerGet)
    EventRecorderTimerInit                   0x08004279   Thumb Code    30  eventrecorder.o(i.EventRecorderTimerInit)
    HAL_CAN_ActivateNotification             0x080042a5   Thumb Code    42  stm32f4xx_hal_can.o(i.HAL_CAN_ActivateNotification)
    HAL_CAN_AddTxMessage                     0x080042cf   Thumb Code   342  stm32f4xx_hal_can.o(i.HAL_CAN_AddTxMessage)
    HAL_CAN_ConfigFilter                     0x08004425   Thumb Code   286  stm32f4xx_hal_can.o(i.HAL_CAN_ConfigFilter)
    HAL_CAN_ErrorCallback                    0x08004549   Thumb Code     2  stm32f4xx_hal_can.o(i.HAL_CAN_ErrorCallback)
    HAL_CAN_GetRxMessage                     0x0800454b   Thumb Code   378  stm32f4xx_hal_can.o(i.HAL_CAN_GetRxMessage)
    HAL_CAN_GetTxMailboxesFreeLevel          0x080046c5   Thumb Code    54  stm32f4xx_hal_can.o(i.HAL_CAN_GetTxMailboxesFreeLevel)
    HAL_CAN_IRQHandler                       0x080046fb   Thumb Code   590  stm32f4xx_hal_can.o(i.HAL_CAN_IRQHandler)
    HAL_CAN_Init                             0x08004949   Thumb Code   372  stm32f4xx_hal_can.o(i.HAL_CAN_Init)
    HAL_CAN_MspInit                          0x08004abd   Thumb Code   172  can.o(i.HAL_CAN_MspInit)
    HAL_CAN_RxFifo0FullCallback              0x08004b75   Thumb Code     2  stm32f4xx_hal_can.o(i.HAL_CAN_RxFifo0FullCallback)
    HAL_CAN_RxFifo0MsgPendingCallback        0x08004b77   Thumb Code    16  co_driver_stm32.o(i.HAL_CAN_RxFifo0MsgPendingCallback)
    HAL_CAN_RxFifo1FullCallback              0x08004b87   Thumb Code     2  stm32f4xx_hal_can.o(i.HAL_CAN_RxFifo1FullCallback)
    HAL_CAN_RxFifo1MsgPendingCallback        0x08004b89   Thumb Code    16  co_driver_stm32.o(i.HAL_CAN_RxFifo1MsgPendingCallback)
    HAL_CAN_SleepCallback                    0x08004b99   Thumb Code     2  stm32f4xx_hal_can.o(i.HAL_CAN_SleepCallback)
    HAL_CAN_Start                            0x08004b9b   Thumb Code    94  stm32f4xx_hal_can.o(i.HAL_CAN_Start)
    HAL_CAN_Stop                             0x08004bf9   Thumb Code   106  stm32f4xx_hal_can.o(i.HAL_CAN_Stop)
    HAL_CAN_TxMailbox0AbortCallback          0x08004c63   Thumb Code     2  stm32f4xx_hal_can.o(i.HAL_CAN_TxMailbox0AbortCallback)
    HAL_CAN_TxMailbox0CompleteCallback       0x08004c65   Thumb Code    16  co_driver_stm32.o(i.HAL_CAN_TxMailbox0CompleteCallback)
    HAL_CAN_TxMailbox1AbortCallback          0x08004c79   Thumb Code     2  stm32f4xx_hal_can.o(i.HAL_CAN_TxMailbox1AbortCallback)
    HAL_CAN_TxMailbox1CompleteCallback       0x08004c7d   Thumb Code    16  co_driver_stm32.o(i.HAL_CAN_TxMailbox1CompleteCallback)
    HAL_CAN_TxMailbox2AbortCallback          0x08004c91   Thumb Code     2  stm32f4xx_hal_can.o(i.HAL_CAN_TxMailbox2AbortCallback)
    HAL_CAN_TxMailbox2CompleteCallback       0x08004c95   Thumb Code    16  co_driver_stm32.o(i.HAL_CAN_TxMailbox2CompleteCallback)
    HAL_CAN_WakeUpFromRxMsgCallback          0x08004ca9   Thumb Code     2  stm32f4xx_hal_can.o(i.HAL_CAN_WakeUpFromRxMsgCallback)
    HAL_DMA_Abort                            0x08004cab   Thumb Code   172  stm32f4xx_hal_dma.o(i.HAL_DMA_Abort)
    HAL_DMA_Abort_IT                         0x08004d57   Thumb Code    40  stm32f4xx_hal_dma.o(i.HAL_DMA_Abort_IT)
    HAL_Delay                                0x08004d81   Thumb Code    36  stm32f4xx_hal.o(i.HAL_Delay)
    HAL_GPIO_EXTI_Callback                   0x08004da9   Thumb Code   108  key.o(i.HAL_GPIO_EXTI_Callback)
    HAL_GPIO_EXTI_IRQHandler                 0x08004e19   Thumb Code    24  stm32f4xx_hal_gpio.o(i.HAL_GPIO_EXTI_IRQHandler)
    HAL_GPIO_Init                            0x08004e35   Thumb Code   452  stm32f4xx_hal_gpio.o(i.HAL_GPIO_Init)
    HAL_GPIO_ReadPin                         0x08005025   Thumb Code    16  stm32f4xx_hal_gpio.o(i.HAL_GPIO_ReadPin)
    HAL_GPIO_WritePin                        0x08005035   Thumb Code    12  stm32f4xx_hal_gpio.o(i.HAL_GPIO_WritePin)
    HAL_GetTick                              0x08005041   Thumb Code     6  stm32f4xx_hal.o(i.HAL_GetTick)
    HAL_IncTick                              0x0800504d   Thumb Code    16  stm32f4xx_hal.o(i.HAL_IncTick)
    HAL_Init                                 0x08005065   Thumb Code    54  stm32f4xx_hal.o(i.HAL_Init)
    HAL_InitTick                             0x080050a1   Thumb Code   122  stm32f4xx_hal_timebase_tim.o(i.HAL_InitTick)
    HAL_MspInit                              0x0800512d   Thumb Code    68  stm32f4xx_hal_msp.o(i.HAL_MspInit)
    HAL_NVIC_EnableIRQ                       0x08005175   Thumb Code    32  stm32f4xx_hal_cortex.o(i.HAL_NVIC_EnableIRQ)
    HAL_NVIC_SetPriority                     0x08005195   Thumb Code   124  stm32f4xx_hal_cortex.o(i.HAL_NVIC_SetPriority)
    HAL_NVIC_SetPriorityGrouping             0x08005211   Thumb Code    32  stm32f4xx_hal_cortex.o(i.HAL_NVIC_SetPriorityGrouping)
    HAL_NVIC_SystemReset                     0x08005239   Thumb Code    60  stm32f4xx_hal_cortex.o(i.HAL_NVIC_SystemReset)
    HAL_RCC_ClockConfig                      0x0800527d   Thumb Code   368  stm32f4xx_hal_rcc.o(i.HAL_RCC_ClockConfig)
    HAL_RCC_GetClockConfig                   0x08005401   Thumb Code    58  stm32f4xx_hal_rcc.o(i.HAL_RCC_GetClockConfig)
    HAL_RCC_GetHCLKFreq                      0x08005445   Thumb Code     6  stm32f4xx_hal_rcc.o(i.HAL_RCC_GetHCLKFreq)
    HAL_RCC_GetPCLK1Freq                     0x08005451   Thumb Code    22  stm32f4xx_hal_rcc.o(i.HAL_RCC_GetPCLK1Freq)
    HAL_RCC_GetPCLK2Freq                     0x08005471   Thumb Code    22  stm32f4xx_hal_rcc.o(i.HAL_RCC_GetPCLK2Freq)
    HAL_RCC_GetSysClockFreq                  0x08005491   Thumb Code   162  stm32f4xx_hal_rcc.o(i.HAL_RCC_GetSysClockFreq)
    HAL_RCC_OscConfig                        0x08005541   Thumb Code  1172  stm32f4xx_hal_rcc.o(i.HAL_RCC_OscConfig)
    HAL_TIMEx_BreakCallback                  0x080059dd   Thumb Code     2  stm32f4xx_hal_tim_ex.o(i.HAL_TIMEx_BreakCallback)
    HAL_TIMEx_CommutCallback                 0x080059df   Thumb Code     2  stm32f4xx_hal_tim_ex.o(i.HAL_TIMEx_CommutCallback)
    HAL_TIMEx_MasterConfigSynchronization    0x080059e1   Thumb Code   150  stm32f4xx_hal_tim_ex.o(i.HAL_TIMEx_MasterConfigSynchronization)
    HAL_TIM_Base_Init                        0x08005a95   Thumb Code   102  stm32f4xx_hal_tim.o(i.HAL_TIM_Base_Init)
    HAL_TIM_Base_MspInit                     0x08005afd   Thumb Code    62  tim.o(i.HAL_TIM_Base_MspInit)
    HAL_TIM_Base_Start                       0x08005b45   Thumb Code   126  stm32f4xx_hal_tim.o(i.HAL_TIM_Base_Start)
    HAL_TIM_Base_Start_IT                    0x08005be1   Thumb Code   138  stm32f4xx_hal_tim.o(i.HAL_TIM_Base_Start_IT)
    HAL_TIM_Base_Stop_IT                     0x08005c89   Thumb Code    62  stm32f4xx_hal_tim.o(i.HAL_TIM_Base_Stop_IT)
    HAL_TIM_IC_CaptureCallback               0x08005cc7   Thumb Code     2  stm32f4xx_hal_tim.o(i.HAL_TIM_IC_CaptureCallback)
    HAL_TIM_IRQHandler                       0x08005cc9   Thumb Code   406  stm32f4xx_hal_tim.o(i.HAL_TIM_IRQHandler)
    HAL_TIM_OC_DelayElapsedCallback          0x08005e5f   Thumb Code     2  stm32f4xx_hal_tim.o(i.HAL_TIM_OC_DelayElapsedCallback)
    HAL_TIM_PWM_PulseFinishedCallback        0x08005e61   Thumb Code     2  stm32f4xx_hal_tim.o(i.HAL_TIM_PWM_PulseFinishedCallback)
    HAL_TIM_PeriodElapsedCallback            0x08005e65   Thumb Code    32  main.o(i.HAL_TIM_PeriodElapsedCallback)
    HAL_TIM_TriggerCallback                  0x08005e8d   Thumb Code     2  stm32f4xx_hal_tim.o(i.HAL_TIM_TriggerCallback)
    HAL_UARTEx_RxEventCallback               0x08005e8f   Thumb Code     2  stm32f4xx_hal_uart.o(i.HAL_UARTEx_RxEventCallback)
    HAL_UART_ErrorCallback                   0x08005e91   Thumb Code     2  stm32f4xx_hal_uart.o(i.HAL_UART_ErrorCallback)
    HAL_UART_IRQHandler                      0x08005e95   Thumb Code   732  stm32f4xx_hal_uart.o(i.HAL_UART_IRQHandler)
    HAL_UART_Init                            0x08006175   Thumb Code   114  stm32f4xx_hal_uart.o(i.HAL_UART_Init)
    HAL_UART_MspInit                         0x080061e9   Thumb Code   140  usart.o(i.HAL_UART_MspInit)
    HAL_UART_RxCpltCallback                  0x08006281   Thumb Code     2  stm32f4xx_hal_uart.o(i.HAL_UART_RxCpltCallback)
    HAL_UART_Transmit                        0x08006283   Thumb Code   210  stm32f4xx_hal_uart.o(i.HAL_UART_Transmit)
    HAL_UART_TxCpltCallback                  0x08006355   Thumb Code     2  stm32f4xx_hal_uart.o(i.HAL_UART_TxCpltCallback)
    HardFault_Handler                        0x08006357   Thumb Code     4  stm32f4xx_it.o(i.HardFault_Handler)
    MODS_Poll                                0x08006be1   Thumb Code    66  modbus_slave.o(i.MODS_Poll)
    MODS_ReciveNew                           0x08006ce5   Thumb Code    80  modbus_slave.o(i.MODS_ReciveNew)
    MX_CAN1_Init                             0x08006e69   Thumb Code   110  can.o(i.MX_CAN1_Init)
    MX_GPIO_Init                             0x08006ee1   Thumb Code   256  gpio.o(i.MX_GPIO_Init)
    MX_TIM7_Init                             0x08006fed   Thumb Code    66  tim.o(i.MX_TIM7_Init)
    MX_UART4_Init                            0x08007039   Thumb Code    46  usart.o(i.MX_UART4_Init)
    MemManage_Handler                        0x08007071   Thumb Code     4  stm32f4xx_it.o(i.MemManage_Handler)
    NMI_Handler                              0x08007075   Thumb Code     4  stm32f4xx_it.o(i.NMI_Handler)
    OD_find                                  0x080070a3   Thumb Code   106  co_odinterface.o(i.OD_find)
    OD_getPtr                                0x08007155   Thumb Code    72  co_odinterface.o(i.OD_getPtr)
    OD_getSDOabCode                          0x0800719d   Thumb Code    24  co_odinterface.o(i.OD_getSDOabCode)
    OD_getSub                                0x080071b9   Thumb Code   276  co_odinterface.o(i.OD_getSub)
    OD_get_value                             0x08007379   Thumb Code    80  co_odinterface.o(i.OD_get_value)
    OD_readOriginal                          0x080073e9   Thumb Code   112  co_odinterface.o(i.OD_readOriginal)
    OD_set_value                             0x080075fb   Thumb Code    74  co_odinterface.o(i.OD_set_value)
    OD_writeOriginal                         0x0800764d   Thumb Code   120  co_odinterface.o(i.OD_writeOriginal)
    PendSV_Handler                           0x080081e1   Thumb Code     2  stm32f4xx_it.o(i.PendSV_Handler)
    RS485_InitTXE                            0x080081e5   Thumb Code    64  modbus_usart.o(i.RS485_InitTXE)
    RS485_ReciveNew                          0x0800822d   Thumb Code    12  modbus_usart.o(i.RS485_ReciveNew)
    RS485_SendBefor                          0x08008239   Thumb Code     8  modbus_usart.o(i.RS485_SendBefor)
    RS485_SendBuf                            0x08008245   Thumb Code    18  modbus_usart.o(i.RS485_SendBuf)
    RS485_SendOver                           0x08008259   Thumb Code    10  modbus_usart.o(i.RS485_SendOver)
    SVC_Handler                              0x08008269   Thumb Code     2  stm32f4xx_it.o(i.SVC_Handler)
    SendNMTCommand                           0x0800826d   Thumb Code    36  canopen_operate.o(i.SendNMTCommand)
    SysTick_Handler                          0x080082a9   Thumb Code     2  stm32f4xx_it.o(i.SysTick_Handler)
    SystemClock_Config                       0x080082ad   Thumb Code   170  main.o(i.SystemClock_Config)
    SystemInit                               0x08008361   Thumb Code    14  system_stm32f4xx.o(i.SystemInit)
    TIM2_IRQHandler                          0x08008375   Thumb Code   164  modbus_tim.o(i.TIM2_IRQHandler)
    TIM6_DAC_IRQHandler                      0x08008429   Thumb Code    10  stm32f4xx_it.o(i.TIM6_DAC_IRQHandler)
    TIM7_IRQHandler                          0x08008439   Thumb Code    10  stm32f4xx_it.o(i.TIM7_IRQHandler)
    TIM_Base_SetConfig                       0x08008449   Thumb Code   170  stm32f4xx_hal_tim.o(i.TIM_Base_SetConfig)
    UART4_IRQHandler                         0x08008521   Thumb Code    10  stm32f4xx_it.o(i.UART4_IRQHandler)
    USART3_IRQHandler                        0x080089e9   Thumb Code    10  modbus_usart.o(i.USART3_IRQHandler)
    UsageFault_Handler                       0x08008bd5   Thumb Code     4  stm32f4xx_it.o(i.UsageFault_Handler)
    __0printf$5                              0x08008bd9   Thumb Code    22  printf5.o(i.__0printf$5)
    __1printf$5                              0x08008bd9   Thumb Code     0  printf5.o(i.__0printf$5)
    __2printf                                0x08008bd9   Thumb Code     0  printf5.o(i.__0printf$5)
    __scatterload_copy                       0x08008c31   Thumb Code    14  handlers.o(i.__scatterload_copy)
    __scatterload_null                       0x08008c3f   Thumb Code     2  handlers.o(i.__scatterload_null)
    __scatterload_zeroinit                   0x08008c41   Thumb Code    14  handlers.o(i.__scatterload_zeroinit)
    bsp_GetKey                               0x08008f3d   Thumb Code    44  key.o(i.bsp_GetKey)
    bsp_GetMsg                               0x08008f6d   Thumb Code    70  modbus_msg.o(i.bsp_GetMsg)
    bsp_InitHardTimer                        0x08008fb9   Thumb Code   136  modbus_tim.o(i.bsp_InitHardTimer)
    bsp_InitUart                             0x08009051   Thumb Code    16  modbus_usart.o(i.bsp_InitUart)
    bsp_PutKey                               0x08009061   Thumb Code    42  key.o(i.bsp_PutKey)
    bsp_PutMsg                               0x08009091   Thumb Code    50  modbus_msg.o(i.bsp_PutMsg)
    bsp_SetUartParam                         0x080090c9   Thumb Code    54  modbus_usart.o(i.bsp_SetUartParam)
    bsp_StartHardTimer                       0x08009101   Thumb Code   124  modbus_tim.o(i.bsp_StartHardTimer)
    canopen_app_init                         0x0800918d   Thumb Code    64  co_app_stm32.o(i.canopen_app_init)
    canopen_app_interrupt                    0x0800921d   Thumb Code   106  co_app_stm32.o(i.canopen_app_interrupt)
    canopen_app_process                      0x0800928d   Thumb Code   160  co_app_stm32.o(i.canopen_app_process)
    canopen_app_resetCommunication           0x08009385   Thumb Code   412  co_app_stm32.o(i.canopen_app_resetCommunication)
    comSendBuf                               0x0800967d   Thumb Code    46  modbus_usart.o(i.comSendBuf)
    fputc                                    0x080098f1   Thumb Code    22  usart.o(i.fputc)
    free                                     0x0800990d   Thumb Code    76  malloc.o(i.free)
    key_fifoinit                             0x0800995d   Thumb Code     8  key.o(i.key_fifoinit)
    main                                     0x08009965   Thumb Code   196  main.o(i.main)
    malloc                                   0x08009a69   Thumb Code    92  malloc.o(i.malloc)
    motor_05h                                0x08009ad5   Thumb Code   148  jawd_speed.o(i.motor_05h)
    motorspeed_init                          0x08009b75   Thumb Code   448  jawd_speed.o(i.motorspeed_init)
    motorstart                               0x08009dc9   Thumb Code   112  jawd_speed.o(i.motorstart)
    motorstop                                0x08009e79   Thumb Code    98  jawd_speed.o(i.motorstop)
    read_SDO                                 0x0800a10d   Thumb Code   148  canopen_operate.o(i.read_SDO)
    readacc                                  0x0800a1a1   Thumb Code    50  jawd_speed.o(i.readacc)
    readdcc                                  0x0800a1e1   Thumb Code    50  jawd_speed.o(i.readdcc)
    readspeed                                0x0800a221   Thumb Code    76  jawd_speed.o(i.readspeed)
    readspeed_taget                          0x0800a295   Thumb Code    62  jawd_speed.o(i.readspeed_taget)
    setacc                                   0x0800a2fd   Thumb Code    84  jawd_speed.o(i.setacc)
    setdcc                                   0x0800a36d   Thumb Code    84  jawd_speed.o(i.setdcc)
    setspeed_1                               0x0800a3dd   Thumb Code    92  jawd_speed.o(i.setspeed_1)
    setspeed_2                               0x0800a459   Thumb Code    92  jawd_speed.o(i.setspeed_2)
    write_SDO                                0x0800a645   Thumb Code   164  canopen_operate.o(i.write_SDO)
    AHBPrescTable                            0x0800a6e8   Data          16  system_stm32f4xx.o(.constdata)
    APBPrescTable                            0x0800a6f8   Data           8  system_stm32f4xx.o(.constdata)
    ModbusBaudRate                           0x0800ae14   Data          64  modbus_slave.o(.constdata)
    s_CRCLo                                  0x0800af54   Data         256  user_lib.o(.constdata)
    EventRecorderInfo                        0x0800b054   Data          24  eventrecorder.o(.constdata)
    Region$$Table$$Base                      0x0800b06c   Number         0  anon$$obj.o(Region$$Table)
    Region$$Table$$Limit                     0x0800b08c   Number         0  anon$$obj.o(Region$$Table)
    uwTick                                   0x20000000   Data           4  stm32f4xx_hal.o(.data)
    uwTickPrio                               0x20000004   Data           4  stm32f4xx_hal.o(.data)
    uwTickFreq                               0x20000008   Data           1  stm32f4xx_hal.o(.data)
    SystemCoreClock                          0x2000000c   Data           4  system_stm32f4xx.o(.data)
    canopenNodeSTM32                         0x20000010   Data           4  co_app_stm32.o(.data)
    CO                                       0x20000014   Data           4  co_app_stm32.o(.data)
    time_old                                 0x20000018   Data           4  co_app_stm32.o(.data)
    time_current                             0x2000001c   Data           4  co_app_stm32.o(.data)
    err                                      0x20000020   Data           1  co_app_stm32.o(.data)
    OD_PERSIST_COMM                          0x20000030   Data         504  od.o(.data)
    OD_RAM                                   0x20000228   Data          52  od.o(.data)
    OD                                       0x200003fc   Data           4  od.o(.data)
    motorspeed_state                         0x20000400   Data           3  jawd_speed.o(.data)
    g_uiReadSize                             0x20000404   Data           4  jawd_speed.o(.data)
    NMT_STATE                                0x20000408   Data           1  canopen_operate.o(.data)
    __stdout                                 0x20000420   Data           4  stdout.o(.data)
    __microlib_freelist                      0x20000424   Data           4  mvars.o(.data)
    __microlib_freelist_initialised          0x20000428   Data           4  mvars.o(.data)
    hcan1                                    0x2000042c   Data          40  can.o(.bss)
    htim7                                    0x20000454   Data          72  tim.o(.bss)
    huart4                                   0x2000049c   Data          68  usart.o(.bss)
    htim6                                    0x200004e0   Data          72  stm32f4xx_hal_timebase_tim.o(.bss)
    g_ucTempBuf                              0x2000055c   Data          20  jawd_speed.o(.bss)
    s_tKey                                   0x20000570   Data          12  key.o(.bss)
    g_tModS                                  0x20000da8   Data         163  modbus_slave.o(.bss)
    g_tVar                                   0x20000e4c   Data          32  modbus_slave.o(.bss)
    g_tMsg                                   0x20000e6c   Data         324  modbus_msg.o(.bss)
    __heap_base                              0x20001468   Data           0  startup_stm32f407xx.o(HEAP)
    __heap_limit                             0x20005468   Data           0  startup_stm32f407xx.o(HEAP)
    __initial_sp                             0x20007468   Data           0  startup_stm32f407xx.o(STACK)



==============================================================================

Memory Map of the image

  Image Entry point : 0x08000189

  Load Region LR_IROM1 (Base: 0x08000000, Size: 0x0000b4b8, Max: 0x00080000, ABSOLUTE, COMPRESSED[0x0000b1c0])

    Execution Region ER_IROM1 (Exec base: 0x08000000, Load base: 0x08000000, Size: 0x0000b08c, Max: 0x00080000, ABSOLUTE)

    Exec Addr    Load Addr    Size         Type   Attr      Idx    E Section Name        Object

    0x08000000   0x08000000   0x00000188   Data   RO            3    RESET               startup_stm32f407xx.o
    0x08000188   0x08000188   0x00000000   Code   RO         5692  * .ARM.Collect$$$$00000000  mc_w.l(entry.o)
    0x08000188   0x08000188   0x00000004   Code   RO         6005    .ARM.Collect$$$$00000001  mc_w.l(entry2.o)
    0x0800018c   0x0800018c   0x00000004   Code   RO         6008    .ARM.Collect$$$$00000004  mc_w.l(entry5.o)
    0x08000190   0x08000190   0x00000000   Code   RO         6010    .ARM.Collect$$$$00000008  mc_w.l(entry7b.o)
    0x08000190   0x08000190   0x00000000   Code   RO         6012    .ARM.Collect$$$$0000000A  mc_w.l(entry8b.o)
    0x08000190   0x08000190   0x00000008   Code   RO         6013    .ARM.Collect$$$$0000000B  mc_w.l(entry9a.o)
    0x08000198   0x08000198   0x00000000   Code   RO         6015    .ARM.Collect$$$$0000000D  mc_w.l(entry10a.o)
    0x08000198   0x08000198   0x00000000   Code   RO         6017    .ARM.Collect$$$$0000000F  mc_w.l(entry11a.o)
    0x08000198   0x08000198   0x00000004   Code   RO         6006    .ARM.Collect$$$$00002712  mc_w.l(entry2.o)
    0x0800019c   0x0800019c   0x00000024   Code   RO            4    .text               startup_stm32f407xx.o
    0x080001c0   0x080001c0   0x00000062   Code   RO         5698    .text               mc_w.l(uldiv.o)
    0x08000222   0x08000222   0x00000040   Code   RO         5704    .text               mc_w.l(memmovea.o)
    0x08000262   0x08000262   0x00000024   Code   RO         5706    .text               mc_w.l(memseta.o)
    0x08000286   0x08000286   0x0000000e   Code   RO         5708    .text               mc_w.l(strlen.o)
    0x08000294   0x08000294   0x0000001c   Code   RO         6003    .text               mc_w.l(calloc.o)
    0x080002b0   0x080002b0   0x0000001e   Code   RO         6021    .text               mc_w.l(llshl.o)
    0x080002ce   0x080002ce   0x00000020   Code   RO         6023    .text               mc_w.l(llushr.o)
    0x080002ee   0x080002ee   0x00000002   PAD
    0x080002f0   0x080002f0   0x00000024   Code   RO         6038    .text               mc_w.l(init.o)
    0x08000314   0x08000314   0x00000056   Code   RO         6052    .text               mc_w.l(__dczerorl2.o)
    0x0800036a   0x0800036a   0x0000000c   Code   RO         5424    i.BEBufToUint16     user_lib.o
    0x08000376   0x08000376   0x00000004   Code   RO          451    i.BusFault_Handler  stm32f4xx_it.o
    0x0800037a   0x0800037a   0x00000002   PAD
    0x0800037c   0x0800037c   0x00000010   Code   RO          452    i.CAN1_RX0_IRQHandler  stm32f4xx_it.o
    0x0800038c   0x0800038c   0x00000010   Code   RO          453    i.CAN1_RX1_IRQHandler  stm32f4xx_it.o
    0x0800039c   0x0800039c   0x00000010   Code   RO          454    i.CAN1_TX_IRQHandler  stm32f4xx_it.o
    0x080003ac   0x080003ac   0x00000074   Code   RO         4720    i.CO_CANclearPendingSyncPDOs  co_driver_stm32.o
    0x08000420   0x08000420   0x00000036   Code   RO         4522    i.CO_CANinit        canopen.o
    0x08000456   0x08000456   0x00000060   Code   RO         4721    i.CO_CANinterrupt_TX  co_driver_stm32.o
    0x080004b6   0x080004b6   0x00000014   Code   RO         4722    i.CO_CANmodule_disable  co_driver_stm32.o
    0x080004ca   0x080004ca   0x00000002   PAD
    0x080004cc   0x080004cc   0x00000104   Code   RO         4723    i.CO_CANmodule_init  co_driver_stm32.o
    0x080005d0   0x080005d0   0x00000048   Code   RO         4724    i.CO_CANmodule_process  co_driver_stm32.o
    0x08000618   0x08000618   0x00000234   Code   RO         4523    i.CO_CANopenInit    canopen.o
    0x0800084c   0x0800084c   0x00000130   Code   RO         4524    i.CO_CANopenInitPDO  canopen.o
    0x0800097c   0x0800097c   0x00000068   Code   RO         4725    i.CO_CANrxBufferInit  co_driver_stm32.o
    0x080009e4   0x080009e4   0x00000050   Code   RO         4726    i.CO_CANsend        co_driver_stm32.o
    0x08000a34   0x08000a34   0x0000000e   Code   RO         4727    i.CO_CANsetConfigurationMode  co_driver_stm32.o
    0x08000a42   0x08000a42   0x00000018   Code   RO         4728    i.CO_CANsetNormalMode  co_driver_stm32.o
    0x08000a5a   0x08000a5a   0x0000003c   Code   RO         4729    i.CO_CANtxBufferInit  co_driver_stm32.o
    0x08000a96   0x08000a96   0x00000002   PAD
    0x08000a98   0x08000a98   0x00000150   Code   RO         3442    i.CO_EM_init        co_emergency.o
    0x08000be8   0x08000be8   0x000001a6   Code   RO         3443    i.CO_EM_process     co_emergency.o
    0x08000d8e   0x08000d8e   0x0000001c   Code   RO         3577    i.CO_HBcons_receive  co_hbconsumer.o
    0x08000daa   0x08000daa   0x00000002   PAD
    0x08000dac   0x08000dac   0x00000114   Code   RO         3578    i.CO_HBconsumer_init  co_hbconsumer.o
    0x08000ec0   0x08000ec0   0x000000d4   Code   RO         3579    i.CO_HBconsumer_initEntry  co_hbconsumer.o
    0x08000f94   0x08000f94   0x0000011c   Code   RO         3580    i.CO_HBconsumer_process  co_hbconsumer.o
    0x080010b0   0x080010b0   0x00000016   Code   RO         4277    i.CO_LEDs_init      co_leds.o
    0x080010c6   0x080010c6   0x0000026a   Code   RO         4278    i.CO_LEDs_process   co_leds.o
    0x08001330   0x08001330   0x00000048   Code   RO         4525    i.CO_LSSinit        canopen.o
    0x08001378   0x08001378   0x000000b4   Code   RO         4375    i.CO_LSSslave_init  co_lssslave.o
    0x0800142c   0x0800142c   0x00000200   Code   RO         4379    i.CO_LSSslave_process  co_lssslave.o
    0x0800162c   0x0800162c   0x000001a4   Code   RO         4380    i.CO_LSSslave_receive  co_lssslave.o
    0x080017d0   0x080017d0   0x0000000e   Code   RO         4526    i.CO_NMT_getInternalState  canopen.o
    0x080017de   0x080017de   0x00000002   PAD
    0x080017e0   0x080017e0   0x00000154   Code   RO         3639    i.CO_NMT_init       co_nmt_heartbeat.o
    0x08001934   0x08001934   0x00000144   Code   RO         3640    i.CO_NMT_process    co_nmt_heartbeat.o
    0x08001a78   0x08001a78   0x0000001c   Code   RO         3641    i.CO_NMT_receive    co_nmt_heartbeat.o
    0x08001a94   0x08001a94   0x0000002c   Code   RO         3642    i.CO_NMT_sendCommand  co_nmt_heartbeat.o
    0x08001ac0   0x08001ac0   0x0000008e   Code   RO         3787    i.CO_PDO_receive    co_pdo.o
    0x08001b4e   0x08001b4e   0x00000002   PAD
    0x08001b50   0x08001b50   0x000001e4   Code   RO         3788    i.CO_RPDO_init      co_pdo.o
    0x08001d34   0x08001d34   0x000001c6   Code   RO         3789    i.CO_RPDO_process   co_pdo.o
    0x08001efa   0x08001efa   0x0000003e   Code   RO         4054    i.CO_SDO_receive    co_sdoserver.o
    0x08001f38   0x08001f38   0x0000025c   Code   RO         3940    i.CO_SDOclientDownload  co_sdoclient.o
    0x08002194   0x08002194   0x00000026   Code   RO         3941    i.CO_SDOclientDownloadBufWrite  co_sdoclient.o
    0x080021ba   0x080021ba   0x00000052   Code   RO         3942    i.CO_SDOclientDownloadInitiate  co_sdoclient.o
    0x0800220c   0x0800220c   0x0000022c   Code   RO         3944    i.CO_SDOclientUpload  co_sdoclient.o
    0x08002438   0x08002438   0x00000026   Code   RO         3945    i.CO_SDOclientUploadBufRead  co_sdoclient.o
    0x0800245e   0x0800245e   0x00000050   Code   RO         3946    i.CO_SDOclientUploadInitiate  co_sdoclient.o
    0x080024ae   0x080024ae   0x000000e8   Code   RO         3947    i.CO_SDOclient_init  co_sdoclient.o
    0x08002596   0x08002596   0x00000030   Code   RO         3948    i.CO_SDOclient_receive  co_sdoclient.o
    0x080025c6   0x080025c6   0x00000002   PAD
    0x080025c8   0x080025c8   0x000000ac   Code   RO         3949    i.CO_SDOclient_setup  co_sdoclient.o
    0x08002674   0x08002674   0x000001b4   Code   RO         4055    i.CO_SDOserver_init  co_sdoserver.o
    0x08002828   0x08002828   0x000000a4   Code   RO         4056    i.CO_SDOserver_init_canRxTx  co_sdoserver.o
    0x080028cc   0x080028cc   0x0000063c   Code   RO         4057    i.CO_SDOserver_process  co_sdoserver.o
    0x08002f08   0x08002f08   0x000001d0   Code   RO         4141    i.CO_SYNC_init      co_sync.o
    0x080030d8   0x080030d8   0x00000132   Code   RO         4142    i.CO_SYNC_process   co_sync.o
    0x0800320a   0x0800320a   0x0000004a   Code   RO         4143    i.CO_SYNC_receive   co_sync.o
    0x08003254   0x08003254   0x000000d4   Code   RO         4205    i.CO_TIME_init      co_time.o
    0x08003328   0x08003328   0x00000098   Code   RO         4206    i.CO_TIME_process   co_time.o
    0x080033c0   0x080033c0   0x0000001e   Code   RO         4207    i.CO_TIME_receive   co_time.o
    0x080033de   0x080033de   0x00000002   PAD
    0x080033e0   0x080033e0   0x00000230   Code   RO         3790    i.CO_TPDO_init      co_pdo.o
    0x08003610   0x08003610   0x0000016a   Code   RO         3791    i.CO_TPDO_process   co_pdo.o
    0x0800377a   0x0800377a   0x000000d8   Code   RO         3792    i.CO_TPDOsend       co_pdo.o
    0x08003852   0x08003852   0x00000078   Code   RO         4527    i.CO_delete         canopen.o
    0x080038ca   0x080038ca   0x000000e2   Code   RO         3444    i.CO_error          co_emergency.o
    0x080039ac   0x080039ac   0x00000018   Code   RO         3529    i.CO_fifo_init      co_fifo.o
    0x080039c4   0x080039c4   0x0000005c   Code   RO         3530    i.CO_fifo_read      co_fifo.o
    0x08003a20   0x08003a20   0x0000000a   Code   RO         3950    i.CO_fifo_reset     co_sdoclient.o
    0x08003a2a   0x08003a2a   0x0000005c   Code   RO         3531    i.CO_fifo_write     co_fifo.o
    0x08003a86   0x08003a86   0x00000014   Code   RO         3793    i.CO_getUint16      co_pdo.o
    0x08003a9a   0x08003a9a   0x00000012   Code   RO         3794    i.CO_getUint32      co_pdo.o
    0x08003aac   0x08003aac   0x00000012   Code   RO         4058    i.CO_getUint32      co_sdoserver.o
    0x08003abe   0x08003abe   0x00000012   Code   RO         4208    i.CO_getUint32      co_time.o
    0x08003ad0   0x08003ad0   0x00000014   Code   RO         3795    i.CO_getUint8       co_pdo.o
    0x08003ae4   0x08003ae4   0x00000024   Code   RO         3643    i.CO_isError        co_nmt_heartbeat.o
    0x08003b08   0x08003b08   0x00000024   Code   RO         4528    i.CO_isError        canopen.o
    0x08003b2c   0x08003b2c   0x0000017c   Code   RO         4530    i.CO_new            canopen.o
    0x08003ca8   0x08003ca8   0x0000016a   Code   RO         4531    i.CO_process        canopen.o
    0x08003e12   0x08003e12   0x00000050   Code   RO         4532    i.CO_process_RPDO   canopen.o
    0x08003e62   0x08003e62   0x00000066   Code   RO         4533    i.CO_process_SYNC   canopen.o
    0x08003ec8   0x08003ec8   0x0000004c   Code   RO         4534    i.CO_process_TPDO   canopen.o
    0x08003f14   0x08003f14   0x00000012   Code   RO         3445    i.CO_setUint32      co_emergency.o
    0x08003f26   0x08003f26   0x00000012   Code   RO         3796    i.CO_setUint32      co_pdo.o
    0x08003f38   0x08003f38   0x00000038   Code   RO         5427    i.CRC16_Modbus      user_lib.o
    0x08003f70   0x08003f70   0x00000014   Code   RO         5139    i.ComToUart         modbus_usart.o
    0x08003f84   0x08003f84   0x00000002   Code   RO          455    i.DebugMon_Handler  stm32f4xx_it.o
    0x08003f86   0x08003f86   0x0000001c   Code   RO          456    i.EXTI15_10_IRQHandler  stm32f4xx_it.o
    0x08003fa2   0x08003fa2   0x0000000c   Code   RO          457    i.EXTI9_5_IRQHandler  stm32f4xx_it.o
    0x08003fae   0x08003fae   0x00000006   Code   RO           13    i.Error_Handler     main.o
    0x08003fb4   0x08003fb4   0x0000002c   Code   RO         5565    i.EventGetTS        eventrecorder.o
    0x08003fe0   0x08003fe0   0x00000114   Code   RO         5569    i.EventRecordItem   eventrecorder.o
    0x080040f4   0x080040f4   0x0000005c   Code   RO         5571    i.EventRecorderEnable  eventrecorder.o
    0x08004150   0x08004150   0x000000ec   Code   RO         5572    i.EventRecorderInitialize  eventrecorder.o
    0x0800423c   0x0800423c   0x00000030   Code   RO         5573    i.EventRecorderStart  eventrecorder.o
    0x0800426c   0x0800426c   0x0000000c   Code   RO         5575    i.EventRecorderTimerGet  eventrecorder.o
    0x08004278   0x08004278   0x0000002c   Code   RO         5576    i.EventRecorderTimerInit  eventrecorder.o
    0x080042a4   0x080042a4   0x0000002a   Code   RO          639    i.HAL_CAN_ActivateNotification  stm32f4xx_hal_can.o
    0x080042ce   0x080042ce   0x00000156   Code   RO          640    i.HAL_CAN_AddTxMessage  stm32f4xx_hal_can.o
    0x08004424   0x08004424   0x00000124   Code   RO          641    i.HAL_CAN_ConfigFilter  stm32f4xx_hal_can.o
    0x08004548   0x08004548   0x00000002   Code   RO          644    i.HAL_CAN_ErrorCallback  stm32f4xx_hal_can.o
    0x0800454a   0x0800454a   0x0000017a   Code   RO          647    i.HAL_CAN_GetRxMessage  stm32f4xx_hal_can.o
    0x080046c4   0x080046c4   0x00000036   Code   RO          649    i.HAL_CAN_GetTxMailboxesFreeLevel  stm32f4xx_hal_can.o
    0x080046fa   0x080046fa   0x0000024e   Code   RO          651    i.HAL_CAN_IRQHandler  stm32f4xx_hal_can.o
    0x08004948   0x08004948   0x00000174   Code   RO          652    i.HAL_CAN_Init      stm32f4xx_hal_can.o
    0x08004abc   0x08004abc   0x000000b8   Code   RO          314    i.HAL_CAN_MspInit   can.o
    0x08004b74   0x08004b74   0x00000002   Code   RO          659    i.HAL_CAN_RxFifo0FullCallback  stm32f4xx_hal_can.o
    0x08004b76   0x08004b76   0x00000010   Code   RO         4730    i.HAL_CAN_RxFifo0MsgPendingCallback  co_driver_stm32.o
    0x08004b86   0x08004b86   0x00000002   Code   RO          661    i.HAL_CAN_RxFifo1FullCallback  stm32f4xx_hal_can.o
    0x08004b88   0x08004b88   0x00000010   Code   RO         4731    i.HAL_CAN_RxFifo1MsgPendingCallback  co_driver_stm32.o
    0x08004b98   0x08004b98   0x00000002   Code   RO          663    i.HAL_CAN_SleepCallback  stm32f4xx_hal_can.o
    0x08004b9a   0x08004b9a   0x0000005e   Code   RO          664    i.HAL_CAN_Start     stm32f4xx_hal_can.o
    0x08004bf8   0x08004bf8   0x0000006a   Code   RO          665    i.HAL_CAN_Stop      stm32f4xx_hal_can.o
    0x08004c62   0x08004c62   0x00000002   Code   RO          666    i.HAL_CAN_TxMailbox0AbortCallback  stm32f4xx_hal_can.o
    0x08004c64   0x08004c64   0x00000014   Code   RO         4732    i.HAL_CAN_TxMailbox0CompleteCallback  co_driver_stm32.o
    0x08004c78   0x08004c78   0x00000002   Code   RO          668    i.HAL_CAN_TxMailbox1AbortCallback  stm32f4xx_hal_can.o
    0x08004c7a   0x08004c7a   0x00000002   PAD
    0x08004c7c   0x08004c7c   0x00000014   Code   RO         4733    i.HAL_CAN_TxMailbox1CompleteCallback  co_driver_stm32.o
    0x08004c90   0x08004c90   0x00000002   Code   RO          670    i.HAL_CAN_TxMailbox2AbortCallback  stm32f4xx_hal_can.o
    0x08004c92   0x08004c92   0x00000002   PAD
    0x08004c94   0x08004c94   0x00000014   Code   RO         4734    i.HAL_CAN_TxMailbox2CompleteCallback  co_driver_stm32.o
    0x08004ca8   0x08004ca8   0x00000002   Code   RO          673    i.HAL_CAN_WakeUpFromRxMsgCallback  stm32f4xx_hal_can.o
    0x08004caa   0x08004caa   0x000000ac   Code   RO         1379    i.HAL_DMA_Abort     stm32f4xx_hal_dma.o
    0x08004d56   0x08004d56   0x00000028   Code   RO         1380    i.HAL_DMA_Abort_IT  stm32f4xx_hal_dma.o
    0x08004d7e   0x08004d7e   0x00000002   PAD
    0x08004d80   0x08004d80   0x00000028   Code   RO         1803    i.HAL_Delay         stm32f4xx_hal.o
    0x08004da8   0x08004da8   0x00000070   Code   RO         5052    i.HAL_GPIO_EXTI_Callback  key.o
    0x08004e18   0x08004e18   0x0000001c   Code   RO         1271    i.HAL_GPIO_EXTI_IRQHandler  stm32f4xx_hal_gpio.o
    0x08004e34   0x08004e34   0x000001f0   Code   RO         1272    i.HAL_GPIO_Init     stm32f4xx_hal_gpio.o
    0x08005024   0x08005024   0x00000010   Code   RO         1274    i.HAL_GPIO_ReadPin  stm32f4xx_hal_gpio.o
    0x08005034   0x08005034   0x0000000c   Code   RO         1276    i.HAL_GPIO_WritePin  stm32f4xx_hal_gpio.o
    0x08005040   0x08005040   0x0000000c   Code   RO         1809    i.HAL_GetTick       stm32f4xx_hal.o
    0x0800504c   0x0800504c   0x00000018   Code   RO         1815    i.HAL_IncTick       stm32f4xx_hal.o
    0x08005064   0x08005064   0x0000003c   Code   RO         1816    i.HAL_Init          stm32f4xx_hal.o
    0x080050a0   0x080050a0   0x0000008c   Code   RO          599    i.HAL_InitTick      stm32f4xx_hal_timebase_tim.o
    0x0800512c   0x0800512c   0x00000048   Code   RO          575    i.HAL_MspInit       stm32f4xx_hal_msp.o
    0x08005174   0x08005174   0x00000020   Code   RO         1661    i.HAL_NVIC_EnableIRQ  stm32f4xx_hal_cortex.o
    0x08005194   0x08005194   0x0000007c   Code   RO         1667    i.HAL_NVIC_SetPriority  stm32f4xx_hal_cortex.o
    0x08005210   0x08005210   0x00000028   Code   RO         1668    i.HAL_NVIC_SetPriorityGrouping  stm32f4xx_hal_cortex.o
    0x08005238   0x08005238   0x00000044   Code   RO         1669    i.HAL_NVIC_SystemReset  stm32f4xx_hal_cortex.o
    0x0800527c   0x0800527c   0x00000184   Code   RO          873    i.HAL_RCC_ClockConfig  stm32f4xx_hal_rcc.o
    0x08005400   0x08005400   0x00000044   Code   RO          877    i.HAL_RCC_GetClockConfig  stm32f4xx_hal_rcc.o
    0x08005444   0x08005444   0x0000000c   Code   RO          878    i.HAL_RCC_GetHCLKFreq  stm32f4xx_hal_rcc.o
    0x08005450   0x08005450   0x00000020   Code   RO          880    i.HAL_RCC_GetPCLK1Freq  stm32f4xx_hal_rcc.o
    0x08005470   0x08005470   0x00000020   Code   RO          881    i.HAL_RCC_GetPCLK2Freq  stm32f4xx_hal_rcc.o
    0x08005490   0x08005490   0x000000b0   Code   RO          882    i.HAL_RCC_GetSysClockFreq  stm32f4xx_hal_rcc.o
    0x08005540   0x08005540   0x0000049c   Code   RO          885    i.HAL_RCC_OscConfig  stm32f4xx_hal_rcc.o
    0x080059dc   0x080059dc   0x00000002   Code   RO         2771    i.HAL_TIMEx_BreakCallback  stm32f4xx_hal_tim_ex.o
    0x080059de   0x080059de   0x00000002   Code   RO         2772    i.HAL_TIMEx_CommutCallback  stm32f4xx_hal_tim_ex.o
    0x080059e0   0x080059e0   0x000000b4   Code   RO         2790    i.HAL_TIMEx_MasterConfigSynchronization  stm32f4xx_hal_tim_ex.o
    0x08005a94   0x08005a94   0x00000066   Code   RO         2056    i.HAL_TIM_Base_Init  stm32f4xx_hal_tim.o
    0x08005afa   0x08005afa   0x00000002   PAD
    0x08005afc   0x08005afc   0x00000048   Code   RO          356    i.HAL_TIM_Base_MspInit  tim.o
    0x08005b44   0x08005b44   0x0000009c   Code   RO         2059    i.HAL_TIM_Base_Start  stm32f4xx_hal_tim.o
    0x08005be0   0x08005be0   0x000000a8   Code   RO         2061    i.HAL_TIM_Base_Start_IT  stm32f4xx_hal_tim.o
    0x08005c88   0x08005c88   0x0000003e   Code   RO         2064    i.HAL_TIM_Base_Stop_IT  stm32f4xx_hal_tim.o
    0x08005cc6   0x08005cc6   0x00000002   Code   RO         2090    i.HAL_TIM_IC_CaptureCallback  stm32f4xx_hal_tim.o
    0x08005cc8   0x08005cc8   0x00000196   Code   RO         2104    i.HAL_TIM_IRQHandler  stm32f4xx_hal_tim.o
    0x08005e5e   0x08005e5e   0x00000002   Code   RO         2107    i.HAL_TIM_OC_DelayElapsedCallback  stm32f4xx_hal_tim.o
    0x08005e60   0x08005e60   0x00000002   Code   RO         2134    i.HAL_TIM_PWM_PulseFinishedCallback  stm32f4xx_hal_tim.o
    0x08005e62   0x08005e62   0x00000002   PAD
    0x08005e64   0x08005e64   0x00000028   Code   RO           14    i.HAL_TIM_PeriodElapsedCallback  main.o
    0x08005e8c   0x08005e8c   0x00000002   Code   RO         2147    i.HAL_TIM_TriggerCallback  stm32f4xx_hal_tim.o
    0x08005e8e   0x08005e8e   0x00000002   Code   RO         3049    i.HAL_UARTEx_RxEventCallback  stm32f4xx_hal_uart.o
    0x08005e90   0x08005e90   0x00000002   Code   RO         3063    i.HAL_UART_ErrorCallback  stm32f4xx_hal_uart.o
    0x08005e92   0x08005e92   0x00000002   PAD
    0x08005e94   0x08005e94   0x000002e0   Code   RO         3066    i.HAL_UART_IRQHandler  stm32f4xx_hal_uart.o
    0x08006174   0x08006174   0x00000072   Code   RO         3067    i.HAL_UART_Init     stm32f4xx_hal_uart.o
    0x080061e6   0x080061e6   0x00000002   PAD
    0x080061e8   0x080061e8   0x00000098   Code   RO          398    i.HAL_UART_MspInit  usart.o
    0x08006280   0x08006280   0x00000002   Code   RO         3073    i.HAL_UART_RxCpltCallback  stm32f4xx_hal_uart.o
    0x08006282   0x08006282   0x000000d2   Code   RO         3075    i.HAL_UART_Transmit  stm32f4xx_hal_uart.o
    0x08006354   0x08006354   0x00000002   Code   RO         3078    i.HAL_UART_TxCpltCallback  stm32f4xx_hal_uart.o
    0x08006356   0x08006356   0x00000004   Code   RO          458    i.HardFault_Handler  stm32f4xx_it.o
    0x0800635a   0x0800635a   0x00000002   PAD
    0x0800635c   0x0800635c   0x000000e8   Code   RO         5140    i.InitHardUart      modbus_usart.o
    0x08006444   0x08006444   0x000001b0   Code   RO         5305    i.MODS_01H          modbus_slave.o
    0x080065f4   0x080065f4   0x00000114   Code   RO         5306    i.MODS_02H          modbus_slave.o
    0x08006708   0x08006708   0x00000130   Code   RO         5307    i.MODS_03H          modbus_slave.o
    0x08006838   0x08006838   0x00000150   Code   RO         5308    i.MODS_04H          modbus_slave.o
    0x08006988   0x08006988   0x000000c4   Code   RO         5309    i.MODS_05H          modbus_slave.o
    0x08006a4c   0x08006a4c   0x00000064   Code   RO         5310    i.MODS_06H          modbus_slave.o
    0x08006ab0   0x08006ab0   0x0000008c   Code   RO         5311    i.MODS_10H          modbus_slave.o
    0x08006b3c   0x08006b3c   0x000000a4   Code   RO         5312    i.MODS_AnalyzeApp   modbus_slave.o
    0x08006be0   0x08006be0   0x0000004c   Code   RO         5313    i.MODS_Poll         modbus_slave.o
    0x08006c2c   0x08006c2c   0x000000b8   Code   RO         5314    i.MODS_ReadRegValue  modbus_slave.o
    0x08006ce4   0x08006ce4   0x00000060   Code   RO         5315    i.MODS_ReciveNew    modbus_slave.o
    0x08006d44   0x08006d44   0x0000000c   Code   RO         5316    i.MODS_RxTimeOut    modbus_slave.o
    0x08006d50   0x08006d50   0x0000002c   Code   RO         5317    i.MODS_SendAckErr   modbus_slave.o
    0x08006d7c   0x08006d7c   0x00000024   Code   RO         5318    i.MODS_SendAckOk    modbus_slave.o
    0x08006da0   0x08006da0   0x00000040   Code   RO         5319    i.MODS_SendWithCRC  modbus_slave.o
    0x08006de0   0x08006de0   0x00000088   Code   RO         5320    i.MODS_WriteRegValue  modbus_slave.o
    0x08006e68   0x08006e68   0x00000078   Code   RO          315    i.MX_CAN1_Init      can.o
    0x08006ee0   0x08006ee0   0x0000010c   Code   RO          289    i.MX_GPIO_Init      gpio.o
    0x08006fec   0x08006fec   0x0000004c   Code   RO          357    i.MX_TIM7_Init      tim.o
    0x08007038   0x08007038   0x00000038   Code   RO          399    i.MX_UART4_Init     usart.o
    0x08007070   0x08007070   0x00000004   Code   RO          459    i.MemManage_Handler  stm32f4xx_it.o
    0x08007074   0x08007074   0x00000004   Code   RO          460    i.NMI_Handler       stm32f4xx_it.o
    0x08007078   0x08007078   0x0000000e   Code   RO         3446    i.OD_extension_init  co_emergency.o
    0x08007086   0x08007086   0x0000000e   Code   RO         3797    i.OD_extension_init  co_pdo.o
    0x08007094   0x08007094   0x0000000e   Code   RO         4144    i.OD_extension_init  co_sync.o
    0x080070a2   0x080070a2   0x0000006a   Code   RO         3707    i.OD_find           co_odinterface.o
    0x0800710c   0x0800710c   0x0000000c   Code   RO         3447    i.OD_getIndex       co_emergency.o
    0x08007118   0x08007118   0x0000000c   Code   RO         3581    i.OD_getIndex       co_hbconsumer.o
    0x08007124   0x08007124   0x0000000c   Code   RO         3644    i.OD_getIndex       co_nmt_heartbeat.o
    0x08007130   0x08007130   0x0000000c   Code   RO         3798    i.OD_getIndex       co_pdo.o
    0x0800713c   0x0800713c   0x0000000c   Code   RO         3951    i.OD_getIndex       co_sdoclient.o
    0x08007148   0x08007148   0x0000000c   Code   RO         4145    i.OD_getIndex       co_sync.o
    0x08007154   0x08007154   0x00000048   Code   RO         3708    i.OD_getPtr         co_odinterface.o
    0x0800719c   0x0800719c   0x0000001c   Code   RO         3709    i.OD_getSDOabCode   co_odinterface.o
    0x080071b8   0x080071b8   0x00000124   Code   RO         3710    i.OD_getSub         co_odinterface.o
    0x080072dc   0x080072dc   0x0000001a   Code   RO         3799    i.OD_get_u16        co_pdo.o
    0x080072f6   0x080072f6   0x0000001a   Code   RO         3800    i.OD_get_u32        co_pdo.o
    0x08007310   0x08007310   0x0000001a   Code   RO         3952    i.OD_get_u32        co_sdoclient.o
    0x0800732a   0x0800732a   0x0000001a   Code   RO         4059    i.OD_get_u32        co_sdoserver.o
    0x08007344   0x08007344   0x0000001a   Code   RO         3801    i.OD_get_u8         co_pdo.o
    0x0800735e   0x0800735e   0x0000001a   Code   RO         3953    i.OD_get_u8         co_sdoclient.o
    0x08007378   0x08007378   0x00000050   Code   RO         3711    i.OD_get_value      co_odinterface.o
    0x080073c8   0x080073c8   0x00000018   Code   RO         4060    i.OD_mappable       co_sdoserver.o
    0x080073e0   0x080073e0   0x00000008   Code   RO         3712    i.OD_readDisabled   co_odinterface.o
    0x080073e8   0x080073e8   0x00000070   Code   RO         3713    i.OD_readOriginal   co_odinterface.o
    0x08007458   0x08007458   0x00000098   Code   RO         3448    i.OD_read_1003      co_emergency.o
    0x080074f0   0x080074f0   0x0000004c   Code   RO         3449    i.OD_read_1014_default  co_emergency.o
    0x0800753c   0x0800753c   0x00000074   Code   RO         3802    i.OD_read_PDO_commParam  co_pdo.o
    0x080075b0   0x080075b0   0x0000002e   Code   RO         3803    i.OD_read_dummy     co_pdo.o
    0x080075de   0x080075de   0x0000001c   Code   RO         4061    i.OD_set_u32        co_sdoserver.o
    0x080075fa   0x080075fa   0x0000004a   Code   RO         3714    i.OD_set_value      co_odinterface.o
    0x08007644   0x08007644   0x00000008   Code   RO         3715    i.OD_writeDisabled  co_odinterface.o
    0x0800764c   0x0800764c   0x00000078   Code   RO         3716    i.OD_writeOriginal  co_odinterface.o
    0x080076c4   0x080076c4   0x00000048   Code   RO         3450    i.OD_write_1003     co_emergency.o
    0x0800770c   0x0800770c   0x00000120   Code   RO         4146    i.OD_write_1005     co_sync.o
    0x0800782c   0x0800782c   0x0000009c   Code   RO         4209    i.OD_write_1012     co_time.o
    0x080078c8   0x080078c8   0x00000074   Code   RO         3582    i.OD_write_1016     co_hbconsumer.o
    0x0800793c   0x0800793c   0x00000050   Code   RO         3645    i.OD_write_1017     co_nmt_heartbeat.o
    0x0800798c   0x0800798c   0x0000008c   Code   RO         4147    i.OD_write_1019     co_sync.o
    0x08007a18   0x08007a18   0x0000019c   Code   RO         4062    i.OD_write_1201_additional  co_sdoserver.o
    0x08007bb4   0x08007bb4   0x000001a0   Code   RO         3804    i.OD_write_14xx     co_pdo.o
    0x08007d54   0x08007d54   0x000001c0   Code   RO         3805    i.OD_write_18xx     co_pdo.o
    0x08007f14   0x08007f14   0x000000c8   Code   RO         3806    i.OD_write_PDO_mapping  co_pdo.o
    0x08007fdc   0x08007fdc   0x0000000c   Code   RO         3807    i.OD_write_dummy    co_pdo.o
    0x08007fe8   0x08007fe8   0x000000f8   Code   RO         3808    i.PDO_initMapping   co_pdo.o
    0x080080e0   0x080080e0   0x00000100   Code   RO         3809    i.PDOconfigMap      co_pdo.o
    0x080081e0   0x080081e0   0x00000002   Code   RO          461    i.PendSV_Handler    stm32f4xx_it.o
    0x080081e2   0x080081e2   0x00000002   PAD
    0x080081e4   0x080081e4   0x00000048   Code   RO         5141    i.RS485_InitTXE     modbus_usart.o
    0x0800822c   0x0800822c   0x0000000c   Code   RO         5142    i.RS485_ReciveNew   modbus_usart.o
    0x08008238   0x08008238   0x0000000c   Code   RO         5143    i.RS485_SendBefor   modbus_usart.o
    0x08008244   0x08008244   0x00000012   Code   RO         5144    i.RS485_SendBuf     modbus_usart.o
    0x08008256   0x08008256   0x00000002   PAD
    0x08008258   0x08008258   0x00000010   Code   RO         5145    i.RS485_SendOver    modbus_usart.o
    0x08008268   0x08008268   0x00000002   Code   RO          462    i.SVC_Handler       stm32f4xx_it.o
    0x0800826a   0x0800826a   0x00000002   PAD
    0x0800826c   0x0800826c   0x0000003c   Code   RO         5008    i.SendNMTCommand    canopen_operate.o
    0x080082a8   0x080082a8   0x00000002   Code   RO          463    i.SysTick_Handler   stm32f4xx_it.o
    0x080082aa   0x080082aa   0x00000002   PAD
    0x080082ac   0x080082ac   0x000000b4   Code   RO           15    i.SystemClock_Config  main.o
    0x08008360   0x08008360   0x00000014   Code   RO         3406    i.SystemInit        system_stm32f4xx.o
    0x08008374   0x08008374   0x000000b4   Code   RO         5100    i.TIM2_IRQHandler   modbus_tim.o
    0x08008428   0x08008428   0x00000010   Code   RO          464    i.TIM6_DAC_IRQHandler  stm32f4xx_it.o
    0x08008438   0x08008438   0x00000010   Code   RO          465    i.TIM7_IRQHandler   stm32f4xx_it.o
    0x08008448   0x08008448   0x000000d8   Code   RO         2149    i.TIM_Base_SetConfig  stm32f4xx_hal_tim.o
    0x08008520   0x08008520   0x00000010   Code   RO          466    i.UART4_IRQHandler  stm32f4xx_it.o
    0x08008530   0x08008530   0x00000014   Code   RO         3080    i.UART_DMAAbortOnError  stm32f4xx_hal_uart.o
    0x08008544   0x08008544   0x0000006c   Code   RO         3090    i.UART_EndRxTransfer  stm32f4xx_hal_uart.o
    0x080085b0   0x080085b0   0x00000020   Code   RO         3091    i.UART_EndTransmit_IT  stm32f4xx_hal_uart.o
    0x080085d0   0x080085d0   0x000000f8   Code   RO         3093    i.UART_Receive_IT   stm32f4xx_hal_uart.o
    0x080086c8   0x080086c8   0x0000022c   Code   RO         3094    i.UART_SetConfig    stm32f4xx_hal_uart.o
    0x080088f4   0x080088f4   0x00000060   Code   RO         3097    i.UART_Transmit_IT  stm32f4xx_hal_uart.o
    0x08008954   0x08008954   0x00000092   Code   RO         3098    i.UART_WaitOnFlagUntilTimeout  stm32f4xx_hal_uart.o
    0x080089e6   0x080089e6   0x00000002   PAD
    0x080089e8   0x080089e8   0x00000010   Code   RO         5148    i.USART3_IRQHandler  modbus_usart.o
    0x080089f8   0x080089f8   0x000000f6   Code   RO         5150    i.UartIRQ           modbus_usart.o
    0x08008aee   0x08008aee   0x00000092   Code   RO         5151    i.UartSend          modbus_usart.o
    0x08008b80   0x08008b80   0x00000054   Code   RO         5153    i.UartVarInit       modbus_usart.o
    0x08008bd4   0x08008bd4   0x00000004   Code   RO          467    i.UsageFault_Handler  stm32f4xx_it.o
    0x08008bd8   0x08008bd8   0x00000020   Code   RO         5847    i.__0printf$5       mc_w.l(printf5.o)
    0x08008bf8   0x08008bf8   0x00000010   Code   RO         1674    i.__NVIC_GetPriorityGrouping  stm32f4xx_hal_cortex.o
    0x08008c08   0x08008c08   0x00000028   Code   RO         1675    i.__NVIC_SetPriority  stm32f4xx_hal_cortex.o
    0x08008c30   0x08008c30   0x0000000e   Code   RO         6046    i.__scatterload_copy  mc_w.l(handlers.o)
    0x08008c3e   0x08008c3e   0x00000002   Code   RO         6047    i.__scatterload_null  mc_w.l(handlers.o)
    0x08008c40   0x08008c40   0x0000000e   Code   RO         6048    i.__scatterload_zeroinit  mc_w.l(handlers.o)
    0x08008c4e   0x08008c4e   0x00000006   Code   RO         5154    i.__set_PRIMASK     modbus_usart.o
    0x08008c54   0x08008c54   0x000002c0   Code   RO         5854    i._printf_core      mc_w.l(printf5.o)
    0x08008f14   0x08008f14   0x00000014   Code   RO         5578    i.atomic_inc32      eventrecorder.o
    0x08008f28   0x08008f28   0x00000012   Code   RO         5580    i.atomic_xch32      eventrecorder.o
    0x08008f3a   0x08008f3a   0x00000002   PAD
    0x08008f3c   0x08008f3c   0x00000030   Code   RO         5053    i.bsp_GetKey        key.o
    0x08008f6c   0x08008f6c   0x0000004c   Code   RO         5523    i.bsp_GetMsg        modbus_msg.o
    0x08008fb8   0x08008fb8   0x00000098   Code   RO         5101    i.bsp_InitHardTimer  modbus_tim.o
    0x08009050   0x08009050   0x00000010   Code   RO         5155    i.bsp_InitUart      modbus_usart.o
    0x08009060   0x08009060   0x00000030   Code   RO         5054    i.bsp_PutKey        key.o
    0x08009090   0x08009090   0x00000038   Code   RO         5526    i.bsp_PutMsg        modbus_msg.o
    0x080090c8   0x080090c8   0x00000036   Code   RO         5156    i.bsp_SetUartParam  modbus_usart.o
    0x080090fe   0x080090fe   0x00000002   PAD
    0x08009100   0x08009100   0x0000008c   Code   RO         5102    i.bsp_StartHardTimer  modbus_tim.o
    0x0800918c   0x0800918c   0x00000090   Code   RO         4646    i.canopen_app_init  co_app_stm32.o
    0x0800921c   0x0800921c   0x00000070   Code   RO         4647    i.canopen_app_interrupt  co_app_stm32.o
    0x0800928c   0x0800928c   0x000000f8   Code   RO         4648    i.canopen_app_process  co_app_stm32.o
    0x08009384   0x08009384   0x000002f8   Code   RO         4649    i.canopen_app_resetCommunication  co_app_stm32.o
    0x0800967c   0x0800967c   0x0000002e   Code   RO         5160    i.comSendBuf        modbus_usart.o
    0x080096aa   0x080096aa   0x00000042   Code   RO         5581    i.crc16_ccitt       eventrecorder.o
    0x080096ec   0x080096ec   0x00000204   Code   RO         4892    i.enable_motor      jawd_speed.o
    0x080098f0   0x080098f0   0x0000001c   Code   RO          401    i.fputc             usart.o
    0x0800990c   0x0800990c   0x00000050   Code   RO         5975    i.free              mc_w.l(malloc.o)
    0x0800995c   0x0800995c   0x00000008   Code   RO         5055    i.key_fifoinit      key.o
    0x08009964   0x08009964   0x00000104   Code   RO           16    i.main              main.o
    0x08009a68   0x08009a68   0x0000006c   Code   RO         5976    i.malloc            mc_w.l(malloc.o)
    0x08009ad4   0x08009ad4   0x000000a0   Code   RO         4893    i.motor_05h         jawd_speed.o
    0x08009b74   0x08009b74   0x00000254   Code   RO         4894    i.motorspeed_init   jawd_speed.o
    0x08009dc8   0x08009dc8   0x000000b0   Code   RO         4895    i.motorstart        jawd_speed.o
    0x08009e78   0x08009e78   0x00000088   Code   RO         4896    i.motorstop         jawd_speed.o
    0x08009f00   0x08009f00   0x00000098   Code   RO         4735    i.prv_read_can_received_msg  co_driver_stm32.o
    0x08009f98   0x08009f98   0x0000005c   Code   RO         4736    i.prv_send_can_message  co_driver_stm32.o
    0x08009ff4   0x08009ff4   0x00000118   Code   RO         4063    i.readFromOd        co_sdoserver.o
    0x0800a10c   0x0800a10c   0x00000094   Code   RO         5009    i.read_SDO          canopen_operate.o
    0x0800a1a0   0x0800a1a0   0x00000040   Code   RO         4897    i.readacc           jawd_speed.o
    0x0800a1e0   0x0800a1e0   0x00000040   Code   RO         4898    i.readdcc           jawd_speed.o
    0x0800a220   0x0800a220   0x00000074   Code   RO         4899    i.readspeed         jawd_speed.o
    0x0800a294   0x0800a294   0x00000068   Code   RO         4900    i.readspeed_taget   jawd_speed.o
    0x0800a2fc   0x0800a2fc   0x00000070   Code   RO         4901    i.setacc            jawd_speed.o
    0x0800a36c   0x0800a36c   0x00000070   Code   RO         4902    i.setdcc            jawd_speed.o
    0x0800a3dc   0x0800a3dc   0x0000007c   Code   RO         4904    i.setspeed_1        jawd_speed.o
    0x0800a458   0x0800a458   0x0000007c   Code   RO         4905    i.setspeed_2        jawd_speed.o
    0x0800a4d4   0x0800a4d4   0x00000170   Code   RO         4064    i.validateAndWriteToOD  co_sdoserver.o
    0x0800a644   0x0800a644   0x000000a4   Code   RO         5010    i.write_SDO         canopen_operate.o
    0x0800a6e8   0x0800a6e8   0x00000018   Data   RO         3407    .constdata          system_stm32f4xx.o
    0x0800a700   0x0800a700   0x00000068   Data   RO         3717    .constdata          co_odinterface.o
    0x0800a768   0x0800a768   0x00000014   Data   RO         4381    .constdata          co_lssslave.o
    0x0800a77c   0x0800a77c   0x00000698   Data   RO         4867    .constdata          od.o
    0x0800ae14   0x0800ae14   0x00000040   Data   RO         5322    .constdata          modbus_slave.o
    0x0800ae54   0x0800ae54   0x00000200   Data   RO         5438    .constdata          user_lib.o
    0x0800b054   0x0800b054   0x00000018   Data   RO         5583    .constdata          eventrecorder.o
    0x0800b06c   0x0800b06c   0x00000020   Data   RO         6044    Region$$Table       anon$$obj.o


    Execution Region RW_IRAM1 (Exec base: 0x20000000, Load base: 0x0800b08c, Size: 0x00007468, Max: 0x0001c000, ABSOLUTE, COMPRESSED[0x00000134])

    Exec Addr    Load Addr    Size         Type   Attr      Idx    E Section Name        Object

    0x20000000   COMPRESSED   0x00000009   Data   RW         1823    .data               stm32f4xx_hal.o
    0x20000009   COMPRESSED   0x00000003   PAD
    0x2000000c   COMPRESSED   0x00000004   Data   RW         3408    .data               system_stm32f4xx.o
    0x20000010   COMPRESSED   0x00000011   Data   RW         4651    .data               co_app_stm32.o
    0x20000021   COMPRESSED   0x00000003   PAD
    0x20000024   COMPRESSED   0x0000000a   Data   RW         4739    .data               co_driver_stm32.o
    0x2000002e   COMPRESSED   0x00000002   PAD
    0x20000030   COMPRESSED   0x000003d0   Data   RW         4868    .data               od.o
    0x20000400   COMPRESSED   0x00000008   Data   RW         4908    .data               jawd_speed.o
    0x20000408   COMPRESSED   0x00000001   Data   RW         5012    .data               canopen_operate.o
    0x20000409   COMPRESSED   0x00000003   PAD
    0x2000040c   COMPRESSED   0x00000010   Data   RW         5103    .data               modbus_tim.o
    0x2000041c   COMPRESSED   0x00000001   Data   RW         5323    .data               modbus_slave.o
    0x2000041d   COMPRESSED   0x00000003   PAD
    0x20000420   COMPRESSED   0x00000004   Data   RW         5697    .data               mc_w.l(stdout.o)
    0x20000424   COMPRESSED   0x00000004   Data   RW         6025    .data               mc_w.l(mvars.o)
    0x20000428   COMPRESSED   0x00000004   Data   RW         6026    .data               mc_w.l(mvars.o)
    0x2000042c        -       0x00000028   Zero   RW          316    .bss                can.o
    0x20000454        -       0x00000048   Zero   RW          358    .bss                tim.o
    0x2000049c        -       0x00000044   Zero   RW          402    .bss                usart.o
    0x200004e0        -       0x00000048   Zero   RW          602    .bss                stm32f4xx_hal_timebase_tim.o
    0x20000528        -       0x00000034   Zero   RW         4737    .bss                co_driver_stm32.o
    0x2000055c        -       0x00000014   Zero   RW         4906    .bss                jawd_speed.o
    0x20000570        -       0x0000000c   Zero   RW         5056    .bss                key.o
    0x2000057c        -       0x0000082c   Zero   RW         5163    .bss                modbus_usart.o
    0x20000da8        -       0x000000c4   Zero   RW         5321    .bss                modbus_slave.o
    0x20000e6c        -       0x00000144   Zero   RW         5527    .bss                modbus_msg.o
    0x20000fb0   COMPRESSED   0x00000010   PAD
    0x20000fc0        -       0x000004a4   Zero   RW         5582    .bss.noinit         eventrecorder.o
    0x20001464   COMPRESSED   0x00000004   PAD
    0x20001468        -       0x00004000   Zero   RW            2    HEAP                startup_stm32f407xx.o
    0x20005468        -       0x00002000   Zero   RW            1    STACK               startup_stm32f407xx.o


    Execution Region RW_IRAM2 (Exec base: 0x2001c000, Load base: 0x0800b1c0, Size: 0x00000000, Max: 0x00004000, ABSOLUTE)

    **** No section assigned to this execution region ****


==============================================================================

Image component sizes


      Code (inc. data)   RO Data    RW Data    ZI Data      Debug   Object Name

       304         22          0          0         40       1833   can.o
      2164         10          0          0          0      27195   canopen.o
       372         24          0          1          0       3508   canopen_operate.o
      1264        522          0         17          0      13750   co_app_stm32.o
      1182         34          0         10         52      13933   co_driver_stm32.o
      1328         22          0          0          0      28708   co_emergency.o
       208          0          0          0          0       3802   co_fifo.o
         0          0          0          0          0       1720   co_gateway_ascii.o
       928         14          0          0          0      16241   co_hbconsumer.o
       640         36          0          0          0      13457   co_leds.o
      1112         16         20          0          0       6089   co_lssslave.o
       864         14          0          0          0      20476   co_nmt_heartbeat.o
       900         20        104          0          0      15203   co_odinterface.o
      4140         68          0          0          0      37866   co_pdo.o
      1924         36          0          0          0      22804   co_sdoclient.o
      3414         52          0          0          0      25255   co_sdoserver.o
         0          0          0          0          0       3308   co_srdo.o
      1298         28          0          0          0      18125   co_sync.o
       568         24          0          0          0       8437   co_time.o
       856         68         24          0       1188      11126   eventrecorder.o
       268         12          0          0          0       1071   gpio.o
      2404        728          0          8         20       9541   jawd_speed.o
       216         14          0          0         12       3575   key.o
       486         82          0          0          0     739315   main.o
       132         12          0          0        324       1759   modbus_msg.o
      2596        130         64          1        196      13217   modbus_slave.o
       472         48          0         16          0       3239   modbus_tim.o
       996         70          0          0       2092      15432   modbus_usart.o
         0          0       1688        976          0      10672   od.o
        36          8        392          0      24576        848   startup_stm32f407xx.o
       136         24          0          9          0       8814   stm32f4xx_hal.o
      2286          6          0          0          0      13621   stm32f4xx_hal_can.o
       320         30          0          0          0      34405   stm32f4xx_hal_cortex.o
       212          0          0          0          0       1991   stm32f4xx_hal_dma.o
       552         48          0          0          0       3478   stm32f4xx_hal_gpio.o
        72          4          0          0          0        882   stm32f4xx_hal_msp.o
      1888         94          0          0          0       6377   stm32f4xx_hal_rcc.o
      1118        106          0          0          0       7395   stm32f4xx_hal_tim.o
       184         30          0          0          0       2545   stm32f4xx_hal_tim_ex.o
       140         18          0          0         72       1507   stm32f4xx_hal_timebase_tim.o
      2274         14          0          0          0      11788   stm32f4xx_hal_uart.o
       164         36          0          0          0       8402   stm32f4xx_it.o
        20          6         24          4          0       1163   system_stm32f4xx.o
       148         20          0          0         72       1654   tim.o
       236         28          0          0         68       2296   usart.o
        68          8        512          0          0       1893   user_lib.o

    ----------------------------------------------------------------------
     40936       2586       2860       1056      28732    1199716   Object Totals
         0          0         32          0          0          0   (incl. Generated)
        46          0          0         14         20          0   (incl. Padding)

    ----------------------------------------------------------------------

      Code (inc. data)   RO Data    RW Data    ZI Data      Debug   Library Member Name

        86          0          0          0          0          0   __dczerorl2.o
        28          0          0          0          0         76   calloc.o
         0          0          0          0          0          0   entry.o
         0          0          0          0          0          0   entry10a.o
         0          0          0          0          0          0   entry11a.o
         8          4          0          0          0          0   entry2.o
         4          0          0          0          0          0   entry5.o
         0          0          0          0          0          0   entry7b.o
         0          0          0          0          0          0   entry8b.o
         8          4          0          0          0          0   entry9a.o
        30          0          0          0          0          0   handlers.o
        36          8          0          0          0         68   init.o
        30          0          0          0          0         68   llshl.o
        32          0          0          0          0         68   llushr.o
       188         20          0          0          0        160   malloc.o
        64          0          0          0          0         76   memmovea.o
        36          0          0          0          0        108   memseta.o
         0          0          0          8          0          0   mvars.o
       736         56          0          0          0        184   printf5.o
         0          0          0          4          0          0   stdout.o
        14          0          0          0          0         68   strlen.o
        98          0          0          0          0         92   uldiv.o

    ----------------------------------------------------------------------
      1400         92          0         12          0        968   Library Totals
         2          0          0          0          0          0   (incl. Padding)

    ----------------------------------------------------------------------

      Code (inc. data)   RO Data    RW Data    ZI Data      Debug   Library Name

      1398         92          0         12          0        968   mc_w.l

    ----------------------------------------------------------------------
      1400         92          0         12          0        968   Library Totals

    ----------------------------------------------------------------------

==============================================================================


      Code (inc. data)   RO Data    RW Data    ZI Data      Debug   

     42336       2678       2860       1068      28732    1171352   Grand Totals
     42336       2678       2860        308      28732    1171352   ELF Image Totals (compressed)
     42336       2678       2860        308          0          0   ROM Totals

==============================================================================

    Total RO  Size (Code + RO Data)                45196 (  44.14kB)
    Total RW  Size (RW Data + ZI Data)             29800 (  29.10kB)
    Total ROM Size (Code + RO Data + RW Data)      45504 (  44.44kB)

==============================================================================

